SF:/home/femar/A03/Proxy/src/config/cli.rs
FN:124,_RNCNvMNtNtCsdAv6ioJvHeS_13tunnel_client6config3cliNtB4_7CliArgs14websocket_host0B8_
FN:11,_RNCNvXs1_NtNtCsdAv6ioJvHeS_13tunnel_client6config3cliNtB7_7CliArgsNtNtCs4djWydsMv9D_12clap_builder6derive14FromArgMatches20from_arg_matches_mut0Bb_
FN:19,_RNCNvXs1_NtNtCsdAv6ioJvHeS_13tunnel_client6config3cliNtB7_7CliArgsNtNtCs4djWydsMv9D_12clap_builder6derive14FromArgMatches20from_arg_matches_muts0_0Bb_
FN:23,_RNCNvXs1_NtNtCsdAv6ioJvHeS_13tunnel_client6config3cliNtB7_7CliArgsNtNtCs4djWydsMv9D_12clap_builder6derive14FromArgMatches20from_arg_matches_muts1_0Bb_
FN:27,_RNCNvXs1_NtNtCsdAv6ioJvHeS_13tunnel_client6config3cliNtB7_7CliArgsNtNtCs4djWydsMv9D_12clap_builder6derive14FromArgMatches20from_arg_matches_muts2_0Bb_
FN:31,_RNCNvXs1_NtNtCsdAv6ioJvHeS_13tunnel_client6config3cliNtB7_7CliArgsNtNtCs4djWydsMv9D_12clap_builder6derive14FromArgMatches20from_arg_matches_muts3_0Bb_
FN:39,_RNCNvXs1_NtNtCsdAv6ioJvHeS_13tunnel_client6config3cliNtB7_7CliArgsNtNtCs4djWydsMv9D_12clap_builder6derive14FromArgMatches20from_arg_matches_muts4_0Bb_
FN:43,_RNCNvXs1_NtNtCsdAv6ioJvHeS_13tunnel_client6config3cliNtB7_7CliArgsNtNtCs4djWydsMv9D_12clap_builder6derive14FromArgMatches20from_arg_matches_muts5_0Bb_
FN:47,_RNCNvXs1_NtNtCsdAv6ioJvHeS_13tunnel_client6config3cliNtB7_7CliArgsNtNtCs4djWydsMv9D_12clap_builder6derive14FromArgMatches20from_arg_matches_muts6_0Bb_
FN:51,_RNCNvXs1_NtNtCsdAv6ioJvHeS_13tunnel_client6config3cliNtB7_7CliArgsNtNtCs4djWydsMv9D_12clap_builder6derive14FromArgMatches20from_arg_matches_muts7_0Bb_
FN:55,_RNCNvXs1_NtNtCsdAv6ioJvHeS_13tunnel_client6config3cliNtB7_7CliArgsNtNtCs4djWydsMv9D_12clap_builder6derive14FromArgMatches20from_arg_matches_muts8_0Bb_
FN:15,_RNCNvXs1_NtNtCsdAv6ioJvHeS_13tunnel_client6config3cliNtB7_7CliArgsNtNtCs4djWydsMv9D_12clap_builder6derive14FromArgMatches20from_arg_matches_muts_0Bb_
FN:11,_RNCNvXs1_NtNtCsdAv6ioJvHeS_13tunnel_client6config3cliNtB7_7CliArgsNtNtCs4djWydsMv9D_12clap_builder6derive14FromArgMatches27update_from_arg_matches_mut0Bb_
FN:19,_RNCNvXs1_NtNtCsdAv6ioJvHeS_13tunnel_client6config3cliNtB7_7CliArgsNtNtCs4djWydsMv9D_12clap_builder6derive14FromArgMatches27update_from_arg_matches_muts0_0Bb_
FN:23,_RNCNvXs1_NtNtCsdAv6ioJvHeS_13tunnel_client6config3cliNtB7_7CliArgsNtNtCs4djWydsMv9D_12clap_builder6derive14FromArgMatches27update_from_arg_matches_muts1_0Bb_
FN:27,_RNCNvXs1_NtNtCsdAv6ioJvHeS_13tunnel_client6config3cliNtB7_7CliArgsNtNtCs4djWydsMv9D_12clap_builder6derive14FromArgMatches27update_from_arg_matches_muts2_0Bb_
FN:31,_RNCNvXs1_NtNtCsdAv6ioJvHeS_13tunnel_client6config3cliNtB7_7CliArgsNtNtCs4djWydsMv9D_12clap_builder6derive14FromArgMatches27update_from_arg_matches_muts3_0Bb_
FN:39,_RNCNvXs1_NtNtCsdAv6ioJvHeS_13tunnel_client6config3cliNtB7_7CliArgsNtNtCs4djWydsMv9D_12clap_builder6derive14FromArgMatches27update_from_arg_matches_muts4_0Bb_
FN:43,_RNCNvXs1_NtNtCsdAv6ioJvHeS_13tunnel_client6config3cliNtB7_7CliArgsNtNtCs4djWydsMv9D_12clap_builder6derive14FromArgMatches27update_from_arg_matches_muts5_0Bb_
FN:47,_RNCNvXs1_NtNtCsdAv6ioJvHeS_13tunnel_client6config3cliNtB7_7CliArgsNtNtCs4djWydsMv9D_12clap_builder6derive14FromArgMatches27update_from_arg_matches_muts6_0Bb_
FN:51,_RNCNvXs1_NtNtCsdAv6ioJvHeS_13tunnel_client6config3cliNtB7_7CliArgsNtNtCs4djWydsMv9D_12clap_builder6derive14FromArgMatches27update_from_arg_matches_muts7_0Bb_
FN:55,_RNCNvXs1_NtNtCsdAv6ioJvHeS_13tunnel_client6config3cliNtB7_7CliArgsNtNtCs4djWydsMv9D_12clap_builder6derive14FromArgMatches27update_from_arg_matches_muts8_0Bb_
FN:15,_RNCNvXs1_NtNtCsdAv6ioJvHeS_13tunnel_client6config3cliNtB7_7CliArgsNtNtCs4djWydsMv9D_12clap_builder6derive14FromArgMatches27update_from_arg_matches_muts_0Bb_
FN:22,_RNCNvXs2_NtNtCsdAv6ioJvHeS_13tunnel_client6config3cliNtB7_7CliArgsNtNtCs4djWydsMv9D_12clap_builder6derive4Args12augment_args0Bb_
FN:42,_RNCNvXs2_NtNtCsdAv6ioJvHeS_13tunnel_client6config3cliNtB7_7CliArgsNtNtCs4djWydsMv9D_12clap_builder6derive4Args12augment_argss0_0Bb_
FN:46,_RNCNvXs2_NtNtCsdAv6ioJvHeS_13tunnel_client6config3cliNtB7_7CliArgsNtNtCs4djWydsMv9D_12clap_builder6derive4Args12augment_argss1_0Bb_
FN:54,_RNCNvXs2_NtNtCsdAv6ioJvHeS_13tunnel_client6config3cliNtB7_7CliArgsNtNtCs4djWydsMv9D_12clap_builder6derive4Args12augment_argss2_0Bb_
FN:26,_RNCNvXs2_NtNtCsdAv6ioJvHeS_13tunnel_client6config3cliNtB7_7CliArgsNtNtCs4djWydsMv9D_12clap_builder6derive4Args12augment_argss_0Bb_
FN:22,_RNCNvXs2_NtNtCsdAv6ioJvHeS_13tunnel_client6config3cliNtB7_7CliArgsNtNtCs4djWydsMv9D_12clap_builder6derive4Args23augment_args_for_update0Bb_
FN:42,_RNCNvXs2_NtNtCsdAv6ioJvHeS_13tunnel_client6config3cliNtB7_7CliArgsNtNtCs4djWydsMv9D_12clap_builder6derive4Args23augment_args_for_updates0_0Bb_
FN:46,_RNCNvXs2_NtNtCsdAv6ioJvHeS_13tunnel_client6config3cliNtB7_7CliArgsNtNtCs4djWydsMv9D_12clap_builder6derive4Args23augment_args_for_updates1_0Bb_
FN:54,_RNCNvXs2_NtNtCsdAv6ioJvHeS_13tunnel_client6config3cliNtB7_7CliArgsNtNtCs4djWydsMv9D_12clap_builder6derive4Args23augment_args_for_updates2_0Bb_
FN:26,_RNCNvXs2_NtNtCsdAv6ioJvHeS_13tunnel_client6config3cliNtB7_7CliArgsNtNtCs4djWydsMv9D_12clap_builder6derive4Args23augment_args_for_updates_0Bb_
FN:129,_RNvMNtNtCsdAv6ioJvHeS_13tunnel_client6config3cliNtB2_7CliArgs10local_host
FN:121,_RNvMNtNtCsdAv6ioJvHeS_13tunnel_client6config3cliNtB2_7CliArgs14websocket_host
FN:145,_RNvMNtNtCsdAv6ioJvHeS_13tunnel_client6config3cliNtB2_7CliArgs16local_uses_https
FN:60,_RNvMNtNtCsdAv6ioJvHeS_13tunnel_client6config3cliNtB2_7CliArgs18parse_and_validate
FN:67,_RNvMNtNtCsdAv6ioJvHeS_13tunnel_client6config3cliNtB2_7CliArgs8validate
FN:140,_RNvMNtNtCsdAv6ioJvHeS_13tunnel_client6config3cliNtB2_7CliArgs12requires_tls
FN:134,_RNvMNtNtCsdAv6ioJvHeS_13tunnel_client6config3cliNtB2_7CliArgs9local_url
FNDA:0,_RNCNvMNtNtCsdAv6ioJvHeS_13tunnel_client6config3cliNtB4_7CliArgs14websocket_host0B8_
FNDA:0,_RNCNvXs1_NtNtCsdAv6ioJvHeS_13tunnel_client6config3cliNtB7_7CliArgsNtNtCs4djWydsMv9D_12clap_builder6derive14FromArgMatches20from_arg_matches_mut0Bb_
FNDA:0,_RNCNvXs1_NtNtCsdAv6ioJvHeS_13tunnel_client6config3cliNtB7_7CliArgsNtNtCs4djWydsMv9D_12clap_builder6derive14FromArgMatches20from_arg_matches_muts0_0Bb_
FNDA:0,_RNCNvXs1_NtNtCsdAv6ioJvHeS_13tunnel_client6config3cliNtB7_7CliArgsNtNtCs4djWydsMv9D_12clap_builder6derive14FromArgMatches20from_arg_matches_muts1_0Bb_
FNDA:0,_RNCNvXs1_NtNtCsdAv6ioJvHeS_13tunnel_client6config3cliNtB7_7CliArgsNtNtCs4djWydsMv9D_12clap_builder6derive14FromArgMatches20from_arg_matches_muts2_0Bb_
FNDA:0,_RNCNvXs1_NtNtCsdAv6ioJvHeS_13tunnel_client6config3cliNtB7_7CliArgsNtNtCs4djWydsMv9D_12clap_builder6derive14FromArgMatches20from_arg_matches_muts3_0Bb_
FNDA:0,_RNCNvXs1_NtNtCsdAv6ioJvHeS_13tunnel_client6config3cliNtB7_7CliArgsNtNtCs4djWydsMv9D_12clap_builder6derive14FromArgMatches20from_arg_matches_muts4_0Bb_
FNDA:0,_RNCNvXs1_NtNtCsdAv6ioJvHeS_13tunnel_client6config3cliNtB7_7CliArgsNtNtCs4djWydsMv9D_12clap_builder6derive14FromArgMatches20from_arg_matches_muts5_0Bb_
FNDA:0,_RNCNvXs1_NtNtCsdAv6ioJvHeS_13tunnel_client6config3cliNtB7_7CliArgsNtNtCs4djWydsMv9D_12clap_builder6derive14FromArgMatches20from_arg_matches_muts6_0Bb_
FNDA:0,_RNCNvXs1_NtNtCsdAv6ioJvHeS_13tunnel_client6config3cliNtB7_7CliArgsNtNtCs4djWydsMv9D_12clap_builder6derive14FromArgMatches20from_arg_matches_muts7_0Bb_
FNDA:0,_RNCNvXs1_NtNtCsdAv6ioJvHeS_13tunnel_client6config3cliNtB7_7CliArgsNtNtCs4djWydsMv9D_12clap_builder6derive14FromArgMatches20from_arg_matches_muts8_0Bb_
FNDA:0,_RNCNvXs1_NtNtCsdAv6ioJvHeS_13tunnel_client6config3cliNtB7_7CliArgsNtNtCs4djWydsMv9D_12clap_builder6derive14FromArgMatches20from_arg_matches_muts_0Bb_
FNDA:0,_RNCNvXs1_NtNtCsdAv6ioJvHeS_13tunnel_client6config3cliNtB7_7CliArgsNtNtCs4djWydsMv9D_12clap_builder6derive14FromArgMatches27update_from_arg_matches_mut0Bb_
FNDA:0,_RNCNvXs1_NtNtCsdAv6ioJvHeS_13tunnel_client6config3cliNtB7_7CliArgsNtNtCs4djWydsMv9D_12clap_builder6derive14FromArgMatches27update_from_arg_matches_muts0_0Bb_
FNDA:0,_RNCNvXs1_NtNtCsdAv6ioJvHeS_13tunnel_client6config3cliNtB7_7CliArgsNtNtCs4djWydsMv9D_12clap_builder6derive14FromArgMatches27update_from_arg_matches_muts1_0Bb_
FNDA:0,_RNCNvXs1_NtNtCsdAv6ioJvHeS_13tunnel_client6config3cliNtB7_7CliArgsNtNtCs4djWydsMv9D_12clap_builder6derive14FromArgMatches27update_from_arg_matches_muts2_0Bb_
FNDA:0,_RNCNvXs1_NtNtCsdAv6ioJvHeS_13tunnel_client6config3cliNtB7_7CliArgsNtNtCs4djWydsMv9D_12clap_builder6derive14FromArgMatches27update_from_arg_matches_muts3_0Bb_
FNDA:0,_RNCNvXs1_NtNtCsdAv6ioJvHeS_13tunnel_client6config3cliNtB7_7CliArgsNtNtCs4djWydsMv9D_12clap_builder6derive14FromArgMatches27update_from_arg_matches_muts4_0Bb_
FNDA:0,_RNCNvXs1_NtNtCsdAv6ioJvHeS_13tunnel_client6config3cliNtB7_7CliArgsNtNtCs4djWydsMv9D_12clap_builder6derive14FromArgMatches27update_from_arg_matches_muts5_0Bb_
FNDA:0,_RNCNvXs1_NtNtCsdAv6ioJvHeS_13tunnel_client6config3cliNtB7_7CliArgsNtNtCs4djWydsMv9D_12clap_builder6derive14FromArgMatches27update_from_arg_matches_muts6_0Bb_
FNDA:0,_RNCNvXs1_NtNtCsdAv6ioJvHeS_13tunnel_client6config3cliNtB7_7CliArgsNtNtCs4djWydsMv9D_12clap_builder6derive14FromArgMatches27update_from_arg_matches_muts7_0Bb_
FNDA:0,_RNCNvXs1_NtNtCsdAv6ioJvHeS_13tunnel_client6config3cliNtB7_7CliArgsNtNtCs4djWydsMv9D_12clap_builder6derive14FromArgMatches27update_from_arg_matches_muts8_0Bb_
FNDA:0,_RNCNvXs1_NtNtCsdAv6ioJvHeS_13tunnel_client6config3cliNtB7_7CliArgsNtNtCs4djWydsMv9D_12clap_builder6derive14FromArgMatches27update_from_arg_matches_muts_0Bb_
FNDA:0,_RNCNvXs2_NtNtCsdAv6ioJvHeS_13tunnel_client6config3cliNtB7_7CliArgsNtNtCs4djWydsMv9D_12clap_builder6derive4Args12augment_args0Bb_
FNDA:0,_RNCNvXs2_NtNtCsdAv6ioJvHeS_13tunnel_client6config3cliNtB7_7CliArgsNtNtCs4djWydsMv9D_12clap_builder6derive4Args12augment_argss0_0Bb_
FNDA:0,_RNCNvXs2_NtNtCsdAv6ioJvHeS_13tunnel_client6config3cliNtB7_7CliArgsNtNtCs4djWydsMv9D_12clap_builder6derive4Args12augment_argss1_0Bb_
FNDA:0,_RNCNvXs2_NtNtCsdAv6ioJvHeS_13tunnel_client6config3cliNtB7_7CliArgsNtNtCs4djWydsMv9D_12clap_builder6derive4Args12augment_argss2_0Bb_
FNDA:0,_RNCNvXs2_NtNtCsdAv6ioJvHeS_13tunnel_client6config3cliNtB7_7CliArgsNtNtCs4djWydsMv9D_12clap_builder6derive4Args12augment_argss_0Bb_
FNDA:0,_RNCNvXs2_NtNtCsdAv6ioJvHeS_13tunnel_client6config3cliNtB7_7CliArgsNtNtCs4djWydsMv9D_12clap_builder6derive4Args23augment_args_for_update0Bb_
FNDA:0,_RNCNvXs2_NtNtCsdAv6ioJvHeS_13tunnel_client6config3cliNtB7_7CliArgsNtNtCs4djWydsMv9D_12clap_builder6derive4Args23augment_args_for_updates0_0Bb_
FNDA:0,_RNCNvXs2_NtNtCsdAv6ioJvHeS_13tunnel_client6config3cliNtB7_7CliArgsNtNtCs4djWydsMv9D_12clap_builder6derive4Args23augment_args_for_updates1_0Bb_
FNDA:0,_RNCNvXs2_NtNtCsdAv6ioJvHeS_13tunnel_client6config3cliNtB7_7CliArgsNtNtCs4djWydsMv9D_12clap_builder6derive4Args23augment_args_for_updates2_0Bb_
FNDA:0,_RNCNvXs2_NtNtCsdAv6ioJvHeS_13tunnel_client6config3cliNtB7_7CliArgsNtNtCs4djWydsMv9D_12clap_builder6derive4Args23augment_args_for_updates_0Bb_
FNDA:0,_RNvMNtNtCsdAv6ioJvHeS_13tunnel_client6config3cliNtB2_7CliArgs10local_host
FNDA:0,_RNvMNtNtCsdAv6ioJvHeS_13tunnel_client6config3cliNtB2_7CliArgs14websocket_host
FNDA:0,_RNvMNtNtCsdAv6ioJvHeS_13tunnel_client6config3cliNtB2_7CliArgs16local_uses_https
FNDA:0,_RNvMNtNtCsdAv6ioJvHeS_13tunnel_client6config3cliNtB2_7CliArgs18parse_and_validate
FNDA:0,_RNvMNtNtCsdAv6ioJvHeS_13tunnel_client6config3cliNtB2_7CliArgs8validate
FNDA:12,_RNvMNtNtCsdAv6ioJvHeS_13tunnel_client6config3cliNtB2_7CliArgs12requires_tls
FNDA:12,_RNvMNtNtCsdAv6ioJvHeS_13tunnel_client6config3cliNtB2_7CliArgs9local_url
FNF:24
FNH:2
DA:11,0
DA:15,0
DA:19,0
DA:22,0
DA:23,0
DA:26,0
DA:27,0
DA:31,0
DA:39,0
DA:42,0
DA:43,0
DA:46,0
DA:47,0
DA:51,0
DA:54,0
DA:55,0
DA:60,0
DA:61,0
DA:62,0
DA:63,0
DA:64,0
DA:67,0
DA:69,0
DA:70,0
DA:71,0
DA:72,0
DA:73,0
DA:74,0
DA:77,0
DA:78,0
DA:79,0
DA:80,0
DA:81,0
DA:82,0
DA:83,0
DA:84,0
DA:85,0
DA:86,0
DA:87,0
DA:88,0
DA:89,0
DA:90,0
DA:91,0
DA:92,0
DA:93,0
DA:94,0
DA:95,0
DA:96,0
DA:97,0
DA:98,0
DA:99,0
DA:100,0
DA:101,0
DA:102,0
DA:103,0
DA:104,0
DA:107,0
DA:108,0
DA:109,0
DA:111,0
DA:112,0
DA:113,0
DA:114,0
DA:115,0
DA:116,0
DA:117,0
DA:118,0
DA:121,0
DA:122,0
DA:123,0
DA:124,0
DA:125,0
DA:126,0
DA:129,0
DA:130,0
DA:131,0
DA:134,12
DA:135,12
DA:136,12
DA:137,12
DA:140,12
DA:141,12
DA:142,12
DA:145,0
DA:146,0
DA:147,0
BRF:0
BRH:0
LF:87
LH:7
end_of_record
SF:/home/femar/A03/Proxy/src/config/settings.rs
FN:304,_RNvMNtNtCsdAv6ioJvHeS_13tunnel_client6config8settingsNtB2_11AppSettings13dashboard_url
FN:299,_RNvMNtNtCsdAv6ioJvHeS_13tunnel_client6config8settingsNtB2_11AppSettings17dashboard_address
FN:312,_RNvMNtNtCsdAv6ioJvHeS_13tunnel_client6config8settingsNtB2_11AppSettings8validate
FN:255,_RNCNvMNtNtCsdAv6ioJvHeS_13tunnel_client6config8settingsNtB4_11AppSettings16load_config_file0B8_
FN:262,_RNCNvMNtNtCsdAv6ioJvHeS_13tunnel_client6config8settingsNtB4_11AppSettings16load_config_files0_0B8_
FN:266,_RNCNvMNtNtCsdAv6ioJvHeS_13tunnel_client6config8settingsNtB4_11AppSettings16load_config_files1_0B8_
FN:267,_RNCNvMNtNtCsdAv6ioJvHeS_13tunnel_client6config8settingsNtB4_11AppSettings16load_config_files2_0B8_
FN:259,_RNCNvMNtNtCsdAv6ioJvHeS_13tunnel_client6config8settingsNtB4_11AppSettings16load_config_files_0B8_
FN:125,_RNCNvMNtNtCsdAv6ioJvHeS_13tunnel_client6config8settingsNtB4_11AppSettings8from_cli0B8_
FN:129,_RNCNvMNtNtCsdAv6ioJvHeS_13tunnel_client6config8settingsNtB4_11AppSettings8from_clis0_0B8_
FN:133,_RNCNvMNtNtCsdAv6ioJvHeS_13tunnel_client6config8settingsNtB4_11AppSettings8from_clis1_0B8_
FN:134,_RNCNvMNtNtCsdAv6ioJvHeS_13tunnel_client6config8settingsNtB4_11AppSettings8from_clis2_0B8_
FN:139,_RNCNvMNtNtCsdAv6ioJvHeS_13tunnel_client6config8settingsNtB4_11AppSettings8from_clis3_0B8_
FN:145,_RNCNvMNtNtCsdAv6ioJvHeS_13tunnel_client6config8settingsNtB4_11AppSettings8from_clis4_0B8_
FN:152,_RNCNvMNtNtCsdAv6ioJvHeS_13tunnel_client6config8settingsNtB4_11AppSettings8from_clis5_0B8_
FN:159,_RNCNvMNtNtCsdAv6ioJvHeS_13tunnel_client6config8settingsNtB4_11AppSettings8from_clis6_0B8_
FN:167,_RNCNvMNtNtCsdAv6ioJvHeS_13tunnel_client6config8settingsNtB4_11AppSettings8from_clis7_0B8_
FN:168,_RNCNvMNtNtCsdAv6ioJvHeS_13tunnel_client6config8settingsNtB4_11AppSettings8from_clis8_0B8_
FN:171,_RNCNvMNtNtCsdAv6ioJvHeS_13tunnel_client6config8settingsNtB4_11AppSettings8from_clis9_0B8_
FN:126,_RNCNvMNtNtCsdAv6ioJvHeS_13tunnel_client6config8settingsNtB4_11AppSettings8from_clis_0B8_
FN:176,_RNCNvMNtNtCsdAv6ioJvHeS_13tunnel_client6config8settingsNtB4_11AppSettings8from_clisa_0B8_
FN:182,_RNCNvMNtNtCsdAv6ioJvHeS_13tunnel_client6config8settingsNtB4_11AppSettings8from_clisb_0B8_
FN:187,_RNCNvMNtNtCsdAv6ioJvHeS_13tunnel_client6config8settingsNtB4_11AppSettings8from_clisc_0B8_
FN:193,_RNCNvMNtNtCsdAv6ioJvHeS_13tunnel_client6config8settingsNtB4_11AppSettings8from_clisd_0B8_
FN:200,_RNCNvMNtNtCsdAv6ioJvHeS_13tunnel_client6config8settingsNtB4_11AppSettings8from_clise_0B8_
FN:208,_RNCNvMNtNtCsdAv6ioJvHeS_13tunnel_client6config8settingsNtB4_11AppSettings8from_clisf_0B8_
FN:213,_RNCNvMNtNtCsdAv6ioJvHeS_13tunnel_client6config8settingsNtB4_11AppSettings8from_clisg_0B8_
FN:214,_RNCNvMNtNtCsdAv6ioJvHeS_13tunnel_client6config8settingsNtB4_11AppSettings8from_clish_0B8_
FN:218,_RNCNvMNtNtCsdAv6ioJvHeS_13tunnel_client6config8settingsNtB4_11AppSettings8from_clisi_0B8_
FN:223,_RNCNvMNtNtCsdAv6ioJvHeS_13tunnel_client6config8settingsNtB4_11AppSettings8from_clisj_0B8_
FN:230,_RNCNvMNtNtCsdAv6ioJvHeS_13tunnel_client6config8settingsNtB4_11AppSettings8from_clisk_0B8_
FN:235,_RNCNvMNtNtCsdAv6ioJvHeS_13tunnel_client6config8settingsNtB4_11AppSettings8from_clisl_0B8_
FN:236,_RNCNvMNtNtCsdAv6ioJvHeS_13tunnel_client6config8settingsNtB4_11AppSettings8from_clism_0B8_
FN:245,_RNCNvMNtNtCsdAv6ioJvHeS_13tunnel_client6config8settingsNtB4_11AppSettings8from_clisn_0B8_
FN:253,_RNvMNtNtCsdAv6ioJvHeS_13tunnel_client6config8settingsNtB2_11AppSettings16load_config_file
FN:274,_RNvMNtNtCsdAv6ioJvHeS_13tunnel_client6config8settingsNtB2_11AppSettings23try_load_default_config
FN:112,_RNvMNtNtCsdAv6ioJvHeS_13tunnel_client6config8settingsNtB2_11AppSettings8from_cli
FNDA:0,_RNvMNtNtCsdAv6ioJvHeS_13tunnel_client6config8settingsNtB2_11AppSettings13dashboard_url
FNDA:0,_RNvMNtNtCsdAv6ioJvHeS_13tunnel_client6config8settingsNtB2_11AppSettings17dashboard_address
FNDA:0,_RNvMNtNtCsdAv6ioJvHeS_13tunnel_client6config8settingsNtB2_11AppSettings8validate
FNDA:48,_RNCNvMNtNtCsdAv6ioJvHeS_13tunnel_client6config8settingsNtB4_11AppSettings16load_config_file0B8_
FNDA:0,_RNCNvMNtNtCsdAv6ioJvHeS_13tunnel_client6config8settingsNtB4_11AppSettings16load_config_files0_0B8_
FNDA:0,_RNCNvMNtNtCsdAv6ioJvHeS_13tunnel_client6config8settingsNtB4_11AppSettings16load_config_files1_0B8_
FNDA:0,_RNCNvMNtNtCsdAv6ioJvHeS_13tunnel_client6config8settingsNtB4_11AppSettings16load_config_files2_0B8_
FNDA:0,_RNCNvMNtNtCsdAv6ioJvHeS_13tunnel_client6config8settingsNtB4_11AppSettings16load_config_files_0B8_
FNDA:0,_RNCNvMNtNtCsdAv6ioJvHeS_13tunnel_client6config8settingsNtB4_11AppSettings8from_cli0B8_
FNDA:12,_RNCNvMNtNtCsdAv6ioJvHeS_13tunnel_client6config8settingsNtB4_11AppSettings8from_clis0_0B8_
FNDA:0,_RNCNvMNtNtCsdAv6ioJvHeS_13tunnel_client6config8settingsNtB4_11AppSettings8from_clis1_0B8_
FNDA:12,_RNCNvMNtNtCsdAv6ioJvHeS_13tunnel_client6config8settingsNtB4_11AppSettings8from_clis2_0B8_
FNDA:0,_RNCNvMNtNtCsdAv6ioJvHeS_13tunnel_client6config8settingsNtB4_11AppSettings8from_clis3_0B8_
FNDA:0,_RNCNvMNtNtCsdAv6ioJvHeS_13tunnel_client6config8settingsNtB4_11AppSettings8from_clis4_0B8_
FNDA:0,_RNCNvMNtNtCsdAv6ioJvHeS_13tunnel_client6config8settingsNtB4_11AppSettings8from_clis5_0B8_
FNDA:0,_RNCNvMNtNtCsdAv6ioJvHeS_13tunnel_client6config8settingsNtB4_11AppSettings8from_clis6_0B8_
FNDA:0,_RNCNvMNtNtCsdAv6ioJvHeS_13tunnel_client6config8settingsNtB4_11AppSettings8from_clis7_0B8_
FNDA:0,_RNCNvMNtNtCsdAv6ioJvHeS_13tunnel_client6config8settingsNtB4_11AppSettings8from_clis8_0B8_
FNDA:12,_RNCNvMNtNtCsdAv6ioJvHeS_13tunnel_client6config8settingsNtB4_11AppSettings8from_clis9_0B8_
FNDA:0,_RNCNvMNtNtCsdAv6ioJvHeS_13tunnel_client6config8settingsNtB4_11AppSettings8from_clis_0B8_
FNDA:0,_RNCNvMNtNtCsdAv6ioJvHeS_13tunnel_client6config8settingsNtB4_11AppSettings8from_clisa_0B8_
FNDA:0,_RNCNvMNtNtCsdAv6ioJvHeS_13tunnel_client6config8settingsNtB4_11AppSettings8from_clisb_0B8_
FNDA:0,_RNCNvMNtNtCsdAv6ioJvHeS_13tunnel_client6config8settingsNtB4_11AppSettings8from_clisc_0B8_
FNDA:0,_RNCNvMNtNtCsdAv6ioJvHeS_13tunnel_client6config8settingsNtB4_11AppSettings8from_clisd_0B8_
FNDA:0,_RNCNvMNtNtCsdAv6ioJvHeS_13tunnel_client6config8settingsNtB4_11AppSettings8from_clise_0B8_
FNDA:0,_RNCNvMNtNtCsdAv6ioJvHeS_13tunnel_client6config8settingsNtB4_11AppSettings8from_clisf_0B8_
FNDA:0,_RNCNvMNtNtCsdAv6ioJvHeS_13tunnel_client6config8settingsNtB4_11AppSettings8from_clisg_0B8_
FNDA:12,_RNCNvMNtNtCsdAv6ioJvHeS_13tunnel_client6config8settingsNtB4_11AppSettings8from_clish_0B8_
FNDA:0,_RNCNvMNtNtCsdAv6ioJvHeS_13tunnel_client6config8settingsNtB4_11AppSettings8from_clisi_0B8_
FNDA:0,_RNCNvMNtNtCsdAv6ioJvHeS_13tunnel_client6config8settingsNtB4_11AppSettings8from_clisj_0B8_
FNDA:0,_RNCNvMNtNtCsdAv6ioJvHeS_13tunnel_client6config8settingsNtB4_11AppSettings8from_clisk_0B8_
FNDA:0,_RNCNvMNtNtCsdAv6ioJvHeS_13tunnel_client6config8settingsNtB4_11AppSettings8from_clisl_0B8_
FNDA:0,_RNCNvMNtNtCsdAv6ioJvHeS_13tunnel_client6config8settingsNtB4_11AppSettings8from_clism_0B8_
FNDA:0,_RNCNvMNtNtCsdAv6ioJvHeS_13tunnel_client6config8settingsNtB4_11AppSettings8from_clisn_0B8_
FNDA:48,_RNvMNtNtCsdAv6ioJvHeS_13tunnel_client6config8settingsNtB2_11AppSettings16load_config_file
FNDA:12,_RNvMNtNtCsdAv6ioJvHeS_13tunnel_client6config8settingsNtB2_11AppSettings23try_load_default_config
FNDA:12,_RNvMNtNtCsdAv6ioJvHeS_13tunnel_client6config8settingsNtB2_11AppSettings8from_cli
FNF:37
FNH:8
DA:112,12
DA:114,12
DA:115,0
DA:117,12
DA:122,12
DA:123,12
DA:124,12
DA:125,12
DA:126,12
DA:127,12
DA:128,12
DA:129,12
DA:130,12
DA:131,12
DA:132,12
DA:133,12
DA:134,12
DA:135,12
DA:136,12
DA:137,12
DA:138,12
DA:139,12
DA:140,12
DA:141,12
DA:142,12
DA:143,12
DA:144,12
DA:145,12
DA:146,12
DA:147,12
DA:148,12
DA:149,12
DA:150,12
DA:151,12
DA:152,12
DA:153,12
DA:154,12
DA:155,12
DA:156,12
DA:157,12
DA:158,12
DA:159,12
DA:160,12
DA:161,12
DA:162,12
DA:163,12
DA:164,12
DA:165,12
DA:166,12
DA:167,12
DA:168,12
DA:169,12
DA:170,12
DA:171,12
DA:172,12
DA:173,12
DA:174,12
DA:175,12
DA:176,12
DA:177,12
DA:178,12
DA:179,12
DA:180,12
DA:181,12
DA:182,12
DA:183,12
DA:184,12
DA:185,12
DA:186,12
DA:187,12
DA:188,12
DA:189,12
DA:190,12
DA:191,12
DA:192,12
DA:193,12
DA:194,12
DA:195,12
DA:196,12
DA:197,12
DA:198,12
DA:199,12
DA:200,12
DA:201,12
DA:202,12
DA:203,12
DA:204,12
DA:205,12
DA:206,12
DA:207,12
DA:208,12
DA:209,12
DA:210,12
DA:211,12
DA:212,12
DA:213,12
DA:214,12
DA:215,12
DA:216,12
DA:217,12
DA:218,12
DA:219,12
DA:220,12
DA:221,12
DA:222,12
DA:223,12
DA:224,12
DA:225,12
DA:226,12
DA:227,12
DA:228,12
DA:229,12
DA:230,12
DA:231,12
DA:232,12
DA:233,12
DA:234,12
DA:235,12
DA:236,12
DA:237,0
DA:238,0
DA:239,0
DA:240,12
DA:241,12
DA:242,12
DA:243,12
DA:244,12
DA:245,12
DA:246,12
DA:247,12
DA:248,12
DA:249,12
DA:250,12
DA:253,48
DA:254,48
DA:255,48
DA:257,0
DA:258,0
DA:259,0
DA:260,0
DA:261,0
DA:262,0
DA:265,0
DA:266,0
DA:267,0
DA:268,0
DA:269,0
DA:271,48
DA:274,12
DA:275,12
DA:276,12
DA:277,12
DA:278,12
DA:279,12
DA:280,12
DA:281,12
DA:283,60
DA:284,48
DA:285,0
DA:286,48
DA:290,12
DA:291,12
DA:292,12
DA:293,12
DA:294,12
DA:295,12
DA:296,12
DA:299,0
DA:300,0
DA:301,0
DA:304,0
DA:305,0
DA:306,0
DA:307,0
DA:308,0
DA:309,0
DA:312,0
DA:313,0
DA:314,0
DA:315,0
DA:316,0
DA:317,0
DA:318,0
DA:319,0
DA:320,0
DA:321,0
DA:322,0
DA:323,0
DA:324,0
DA:325,0
DA:326,0
DA:327,0
DA:328,0
DA:329,0
DA:330,0
DA:331,0
DA:332,0
DA:333,0
DA:334,0
BRF:0
BRH:0
LF:232
LH:156
end_of_record
SF:/home/femar/A03/Proxy/src/lib.rs
FN:57,_RNvMCsdAv6ioJvHeS_13tunnel_clientNtB2_8AppState3new
FN:87,_RNvMCsdAv6ioJvHeS_13tunnel_clientNtB2_8AppState9get_stats
FN:111,_RNCNCNvCsdAv6ioJvHeS_13tunnel_client15run_application00B5_
FN:132,_RNCNCNvCsdAv6ioJvHeS_13tunnel_client15run_application0s0_0B5_
FN:140,_RNCNCNvCsdAv6ioJvHeS_13tunnel_client15run_application0s1_0B5_
FN:158,_RNCNCNvCsdAv6ioJvHeS_13tunnel_client15run_application0s3_0B5_
FN:123,_RNCNCNvCsdAv6ioJvHeS_13tunnel_client15run_application0s_0B5_
FN:100,_RNCNvCsdAv6ioJvHeS_13tunnel_client15run_application0B3_
FN:100,_RNvCsdAv6ioJvHeS_13tunnel_client15run_application
FN:79,_RINvMCsdAv6ioJvHeS_13tunnel_clientNtB3_8AppState12update_statsNCNCNCNvMNtNtB3_9websocket6tunnelNtB17_13TunnelHandler14handle_message000EB3_
FN:79,_RINvMCsdAv6ioJvHeS_13tunnel_clientNtB3_8AppState12update_statsNCNCNCNvMNtNtB3_9websocket6tunnelNtB17_13TunnelHandler14handle_message00s0_0EB3_
FN:79,_RINvMCsdAv6ioJvHeS_13tunnel_clientNtB3_8AppState12update_statsNCNCNCNvMNtNtB3_9websocket6tunnelNtB17_13TunnelHandler14handle_message00s_0EB3_
FN:82,_RNCINvMCsdAv6ioJvHeS_13tunnel_clientNtB5_8AppState12update_statsNCNCNCNvMNtNtB5_9websocket6tunnelNtB19_13TunnelHandler14handle_message000E0B5_
FN:82,_RNCINvMCsdAv6ioJvHeS_13tunnel_clientNtB5_8AppState12update_statsNCNCNCNvMNtNtB5_9websocket6tunnelNtB19_13TunnelHandler14handle_message00s0_0E0B5_
FN:82,_RNCINvMCsdAv6ioJvHeS_13tunnel_clientNtB5_8AppState12update_statsNCNCNCNvMNtNtB5_9websocket6tunnelNtB19_13TunnelHandler14handle_message00s_0E0B5_
FN:87,_RNCNvMCsdAv6ioJvHeS_13tunnel_clientNtB4_8AppState9get_stats0B4_
FNDA:12,_RNvMCsdAv6ioJvHeS_13tunnel_clientNtB2_8AppState3new
FNDA:2,_RNvMCsdAv6ioJvHeS_13tunnel_clientNtB2_8AppState9get_stats
FNDA:0,_RNCNCNvCsdAv6ioJvHeS_13tunnel_client15run_application00B5_
FNDA:0,_RNCNCNvCsdAv6ioJvHeS_13tunnel_client15run_application0s0_0B5_
FNDA:0,_RNCNCNvCsdAv6ioJvHeS_13tunnel_client15run_application0s1_0B5_
FNDA:0,_RNCNCNvCsdAv6ioJvHeS_13tunnel_client15run_application0s3_0B5_
FNDA:0,_RNCNCNvCsdAv6ioJvHeS_13tunnel_client15run_application0s_0B5_
FNDA:0,_RNCNvCsdAv6ioJvHeS_13tunnel_client15run_application0B3_
FNDA:0,_RNvCsdAv6ioJvHeS_13tunnel_client15run_application
FNDA:0,_RINvMCsdAv6ioJvHeS_13tunnel_clientNtB3_8AppState12update_statsNCNCNCNvMNtNtB3_9websocket6tunnelNtB17_13TunnelHandler14handle_message000EB3_
FNDA:0,_RINvMCsdAv6ioJvHeS_13tunnel_clientNtB3_8AppState12update_statsNCNCNCNvMNtNtB3_9websocket6tunnelNtB17_13TunnelHandler14handle_message00s0_0EB3_
FNDA:0,_RINvMCsdAv6ioJvHeS_13tunnel_clientNtB3_8AppState12update_statsNCNCNCNvMNtNtB3_9websocket6tunnelNtB17_13TunnelHandler14handle_message00s_0EB3_
FNDA:0,_RNCINvMCsdAv6ioJvHeS_13tunnel_clientNtB5_8AppState12update_statsNCNCNCNvMNtNtB5_9websocket6tunnelNtB19_13TunnelHandler14handle_message000E0B5_
FNDA:0,_RNCINvMCsdAv6ioJvHeS_13tunnel_clientNtB5_8AppState12update_statsNCNCNCNvMNtNtB5_9websocket6tunnelNtB19_13TunnelHandler14handle_message00s0_0E0B5_
FNDA:0,_RNCINvMCsdAv6ioJvHeS_13tunnel_clientNtB5_8AppState12update_statsNCNCNCNvMNtNtB5_9websocket6tunnelNtB19_13TunnelHandler14handle_message00s_0E0B5_
FNDA:2,_RNCNvMCsdAv6ioJvHeS_13tunnel_clientNtB4_8AppState9get_stats0B4_
FNF:12
FNH:3
DA:57,12
DA:58,12
DA:59,12
DA:60,12
DA:61,12
DA:62,12
DA:63,12
DA:64,12
DA:65,12
DA:66,12
DA:67,12
DA:68,12
DA:69,12
DA:70,12
DA:71,12
DA:72,12
DA:73,12
DA:74,12
DA:75,12
DA:76,12
DA:77,12
DA:79,0
DA:80,0
DA:81,0
DA:82,0
DA:83,0
DA:84,0
DA:85,0
DA:87,2
DA:88,2
DA:89,2
DA:100,0
DA:101,0
DA:104,0
DA:105,0
DA:108,0
DA:109,0
DA:110,0
DA:111,0
DA:112,0
DA:113,0
DA:114,0
DA:115,0
DA:116,0
DA:118,0
DA:121,0
DA:122,0
DA:123,0
DA:124,0
DA:125,0
DA:126,0
DA:127,0
DA:128,0
DA:129,0
DA:130,0
DA:131,0
DA:132,0
DA:133,0
DA:134,0
DA:135,0
DA:136,0
DA:137,0
DA:138,0
DA:139,0
DA:140,0
DA:141,0
DA:142,0
DA:143,0
DA:144,0
DA:145,0
DA:146,0
DA:147,0
DA:148,0
DA:149,0
DA:150,0
DA:151,0
DA:153,0
DA:154,0
DA:155,0
DA:156,0
DA:158,0
DA:159,0
DA:160,0
DA:163,0
DA:165,0
DA:166,0
DA:167,0
DA:168,0
DA:172,0
DA:173,0
DA:174,0
BRF:0
BRH:0
LF:103
LH:25
end_of_record
SF:/home/femar/A03/Proxy/src/logging/mod.rs
FN:12,_RNCNvNtCsdAv6ioJvHeS_13tunnel_client7logging4init0B5_
FN:33,_RNvNtCsdAv6ioJvHeS_13tunnel_client7logging15parse_log_level
FN:6,_RNvNtCsdAv6ioJvHeS_13tunnel_client7logging4init
FNDA:0,_RNCNvNtCsdAv6ioJvHeS_13tunnel_client7logging4init0B5_
FNDA:0,_RNvNtCsdAv6ioJvHeS_13tunnel_client7logging15parse_log_level
FNDA:0,_RNvNtCsdAv6ioJvHeS_13tunnel_client7logging4init
FNF:3
FNH:0
DA:6,0
DA:8,0
DA:11,0
DA:12,0
DA:13,0
DA:14,0
DA:15,0
DA:16,0
DA:17,0
DA:18,0
DA:19,0
DA:20,0
DA:21,0
DA:22,0
DA:23,0
DA:24,0
DA:25,0
DA:26,0
DA:27,0
DA:28,0
DA:29,0
DA:30,0
DA:33,0
DA:34,0
DA:35,0
DA:36,0
DA:37,0
DA:38,0
DA:39,0
DA:40,0
DA:42,0
BRF:0
BRH:0
LF:32
LH:0
end_of_record
SF:/home/femar/A03/Proxy/src/main.rs
FN:10,_RNCNvCs66XT8f1wiaR_13tunnel_client4main0B3_
FN:10,_RNvCs66XT8f1wiaR_13tunnel_client4main
FNDA:0,_RNCNvCs66XT8f1wiaR_13tunnel_client4main0B3_
FNDA:0,_RNvCs66XT8f1wiaR_13tunnel_client4main
FNF:2
FNH:0
DA:10,0
DA:11,0
DA:12,0
DA:13,0
DA:14,0
DA:15,0
DA:16,0
DA:17,0
DA:18,0
DA:19,0
DA:20,0
DA:21,0
DA:22,0
DA:23,0
DA:24,0
DA:25,0
DA:26,0
DA:27,0
DA:28,0
DA:29,0
DA:30,0
DA:31,0
DA:32,0
DA:33,0
DA:34,0
DA:35,0
DA:36,0
DA:37,0
BRF:0
BRH:0
LF:45
LH:0
end_of_record
SF:/home/femar/A03/Proxy/src/proxy/client.rs
FN:53,_RNCNvMNtNtCsdAv6ioJvHeS_13tunnel_client5proxy6clientNtB4_17LocalServerClient15forward_request0B8_
FN:110,_RNCNvMNtNtCsdAv6ioJvHeS_13tunnel_client5proxy6clientNtB4_17LocalServerClient16convert_response0B8_
FN:47,_RNvMNtNtCsdAv6ioJvHeS_13tunnel_client5proxy6clientNtB2_17LocalServerClient15forward_request
FN:110,_RNvMNtNtCsdAv6ioJvHeS_13tunnel_client5proxy6clientNtB2_17LocalServerClient16convert_response
FN:161,_RNvMNtNtCsdAv6ioJvHeS_13tunnel_client5proxy6clientNtB2_17LocalServerClient27should_skip_response_header
FN:170,_RNvMNtNtCsdAv6ioJvHeS_13tunnel_client5proxy6clientNtB2_17LocalServerClient9get_stats
FN:145,_RNvMNtNtCsdAv6ioJvHeS_13tunnel_client5proxy6clientNtB2_17LocalServerClient18should_skip_header
FN:27,_RNvMNtNtCsdAv6ioJvHeS_13tunnel_client5proxy6clientNtB2_17LocalServerClient3new
FN:97,_RNvMNtNtCsdAv6ioJvHeS_13tunnel_client5proxy6clientNtB2_17LocalServerClient9build_url
FN:190,_RNvNtNtNtCsdAv6ioJvHeS_13tunnel_client5proxy6client5testss_17test_url_building
FN:202,_RNvNtNtNtCsdAv6ioJvHeS_13tunnel_client5proxy6client5testss_21test_header_filtering
FNDA:0,_RNCNvMNtNtCsdAv6ioJvHeS_13tunnel_client5proxy6clientNtB4_17LocalServerClient15forward_request0B8_
FNDA:0,_RNCNvMNtNtCsdAv6ioJvHeS_13tunnel_client5proxy6clientNtB4_17LocalServerClient16convert_response0B8_
FNDA:0,_RNvMNtNtCsdAv6ioJvHeS_13tunnel_client5proxy6clientNtB2_17LocalServerClient15forward_request
FNDA:0,_RNvMNtNtCsdAv6ioJvHeS_13tunnel_client5proxy6clientNtB2_17LocalServerClient16convert_response
FNDA:0,_RNvMNtNtCsdAv6ioJvHeS_13tunnel_client5proxy6clientNtB2_17LocalServerClient27should_skip_response_header
FNDA:0,_RNvMNtNtCsdAv6ioJvHeS_13tunnel_client5proxy6clientNtB2_17LocalServerClient9get_stats
FNDA:5,_RNvMNtNtCsdAv6ioJvHeS_13tunnel_client5proxy6clientNtB2_17LocalServerClient18should_skip_header
FNDA:4,_RNvMNtNtCsdAv6ioJvHeS_13tunnel_client5proxy6clientNtB2_17LocalServerClient3new
FNDA:2,_RNvMNtNtCsdAv6ioJvHeS_13tunnel_client5proxy6clientNtB2_17LocalServerClient9build_url
FNDA:1,_RNvNtNtNtCsdAv6ioJvHeS_13tunnel_client5proxy6client5testss_17test_url_building
FNDA:1,_RNvNtNtNtCsdAv6ioJvHeS_13tunnel_client5proxy6client5testss_21test_header_filtering
FNF:11
FNH:5
DA:27,4
DA:28,4
DA:29,4
DA:30,4
DA:31,4
DA:32,4
DA:33,4
DA:34,4
DA:35,4
DA:36,4
DA:37,4
DA:39,4
DA:40,4
DA:41,4
DA:42,4
DA:43,4
DA:44,4
DA:47,0
DA:48,0
DA:49,0
DA:50,0
DA:51,0
DA:52,0
DA:53,0
DA:54,0
DA:56,0
DA:59,0
DA:60,0
DA:61,0
DA:64,0
DA:65,0
DA:66,0
DA:67,0
DA:71,0
DA:72,0
DA:73,0
DA:76,0
DA:77,0
DA:78,0
DA:79,0
DA:80,0
DA:82,0
DA:83,0
DA:84,0
DA:85,0
DA:86,0
DA:91,0
DA:93,0
DA:94,0
DA:97,2
DA:98,2
DA:99,1
DA:101,1
DA:104,2
DA:105,2
DA:106,2
DA:107,2
DA:110,0
DA:111,0
DA:112,0
DA:113,0
DA:114,0
DA:115,0
DA:116,0
DA:117,0
DA:118,0
DA:119,0
DA:120,0
DA:121,0
DA:125,0
DA:126,0
DA:127,0
DA:128,0
DA:130,0
DA:131,0
DA:133,0
DA:136,0
DA:137,0
DA:138,0
DA:139,0
DA:140,0
DA:141,0
DA:142,0
DA:145,5
DA:146,5
DA:147,3
DA:148,5
DA:149,5
DA:150,4
DA:151,3
DA:152,3
DA:153,2
DA:154,2
DA:155,2
DA:156,2
DA:158,5
DA:161,0
DA:162,0
DA:163,0
DA:164,0
DA:165,0
DA:167,0
DA:170,0
DA:171,0
DA:172,0
DA:173,0
DA:174,0
DA:175,0
DA:190,1
DA:191,1
DA:192,1
DA:193,1
DA:194,1
DA:195,1
DA:197,1
DA:198,1
DA:199,1
DA:202,1
DA:203,1
DA:204,1
DA:205,1
DA:206,1
DA:207,1
DA:208,1
DA:209,1
DA:210,1
DA:211,1
BRF:0
BRH:0
LF:129
LH:57
end_of_record
SF:/home/femar/A03/Proxy/src/proxy/forwarder.rs
FN:277,_RNvNtNtNtCsdAv6ioJvHeS_13tunnel_client5proxy9forwarder5tests21create_test_app_state
FN:299,_RNvNtNtNtCsdAv6ioJvHeS_13tunnel_client5proxy9forwarder5testss_24test_url_path_extraction
FN:319,_RNvNtNtNtCsdAv6ioJvHeS_13tunnel_client5proxy9forwarder5testss_25test_stats_initialization
FN:247,_RNCNvMNtNtCsdAv6ioJvHeS_13tunnel_client5proxy9forwarderNtB4_14ProxyForwarder21extract_path_from_url0B8_
FN:257,_RNCNvMNtNtCsdAv6ioJvHeS_13tunnel_client5proxy9forwarderNtB4_14ProxyForwarder9get_stats0B8_
FN:62,_RNCNCNCNvMNtNtCsdAv6ioJvHeS_13tunnel_client5proxy9forwarderNtB8_14ProxyForwarder3run000Bc_
FN:192,_RNCNvMNtNtCsdAv6ioJvHeS_13tunnel_client5proxy9forwarderNtB4_14ProxyForwarder13send_response0B8_
FN:99,_RNCNvMNtNtCsdAv6ioJvHeS_13tunnel_client5proxy9forwarderNtB4_14ProxyForwarder19handle_http_request0B8_
FN:216,_RNCNvMNtNtCsdAv6ioJvHeS_13tunnel_client5proxy9forwarderNtB4_14ProxyForwarder19send_error_response0B8_
FN:48,_RNCNvMNtNtCsdAv6ioJvHeS_13tunnel_client5proxy9forwarderNtB4_14ProxyForwarder3run0B8_
FN:192,_RNvMNtNtCsdAv6ioJvHeS_13tunnel_client5proxy9forwarderNtB2_14ProxyForwarder13send_response
FN:92,_RNvMNtNtCsdAv6ioJvHeS_13tunnel_client5proxy9forwarderNtB2_14ProxyForwarder19handle_http_request
FN:210,_RNvMNtNtCsdAv6ioJvHeS_13tunnel_client5proxy9forwarderNtB2_14ProxyForwarder19send_error_response
FN:48,_RNvMNtNtCsdAv6ioJvHeS_13tunnel_client5proxy9forwarderNtB2_14ProxyForwarder3run
FN:263,_RNvXs_NtNtCsdAv6ioJvHeS_13tunnel_client5proxy9forwarderNtB4_14ProxyForwarderNtNtCs9sjCchOt1K7_4core5clone5Clone5clone
FN:319,_RNCNvNtNtNtCsdAv6ioJvHeS_13tunnel_client5proxy9forwarder5testss_25test_stats_initialization0B9_
FN:238,_RNvMNtNtCsdAv6ioJvHeS_13tunnel_client5proxy9forwarderNtB2_14ProxyForwarder21extract_path_from_url
FN:32,_RNvMNtNtCsdAv6ioJvHeS_13tunnel_client5proxy9forwarderNtB2_14ProxyForwarder3new
FN:257,_RNvMNtNtCsdAv6ioJvHeS_13tunnel_client5proxy9forwarderNtB2_14ProxyForwarder9get_stats
FNDA:2,_RNvNtNtNtCsdAv6ioJvHeS_13tunnel_client5proxy9forwarder5tests21create_test_app_state
FNDA:1,_RNvNtNtNtCsdAv6ioJvHeS_13tunnel_client5proxy9forwarder5testss_24test_url_path_extraction
FNDA:1,_RNvNtNtNtCsdAv6ioJvHeS_13tunnel_client5proxy9forwarder5testss_25test_stats_initialization
FNDA:1,_RNCNvMNtNtCsdAv6ioJvHeS_13tunnel_client5proxy9forwarderNtB4_14ProxyForwarder21extract_path_from_url0B8_
FNDA:1,_RNCNvMNtNtCsdAv6ioJvHeS_13tunnel_client5proxy9forwarderNtB4_14ProxyForwarder9get_stats0B8_
FNDA:0,_RNCNCNCNvMNtNtCsdAv6ioJvHeS_13tunnel_client5proxy9forwarderNtB8_14ProxyForwarder3run000Bc_
FNDA:0,_RNCNvMNtNtCsdAv6ioJvHeS_13tunnel_client5proxy9forwarderNtB4_14ProxyForwarder13send_response0B8_
FNDA:0,_RNCNvMNtNtCsdAv6ioJvHeS_13tunnel_client5proxy9forwarderNtB4_14ProxyForwarder19handle_http_request0B8_
FNDA:0,_RNCNvMNtNtCsdAv6ioJvHeS_13tunnel_client5proxy9forwarderNtB4_14ProxyForwarder19send_error_response0B8_
FNDA:0,_RNCNvMNtNtCsdAv6ioJvHeS_13tunnel_client5proxy9forwarderNtB4_14ProxyForwarder3run0B8_
FNDA:0,_RNvMNtNtCsdAv6ioJvHeS_13tunnel_client5proxy9forwarderNtB2_14ProxyForwarder13send_response
FNDA:0,_RNvMNtNtCsdAv6ioJvHeS_13tunnel_client5proxy9forwarderNtB2_14ProxyForwarder19handle_http_request
FNDA:0,_RNvMNtNtCsdAv6ioJvHeS_13tunnel_client5proxy9forwarderNtB2_14ProxyForwarder19send_error_response
FNDA:0,_RNvMNtNtCsdAv6ioJvHeS_13tunnel_client5proxy9forwarderNtB2_14ProxyForwarder3run
FNDA:0,_RNvXs_NtNtCsdAv6ioJvHeS_13tunnel_client5proxy9forwarderNtB4_14ProxyForwarderNtNtCs9sjCchOt1K7_4core5clone5Clone5clone
FNDA:1,_RNCNvNtNtNtCsdAv6ioJvHeS_13tunnel_client5proxy9forwarder5testss_25test_stats_initialization0B9_
FNDA:3,_RNvMNtNtCsdAv6ioJvHeS_13tunnel_client5proxy9forwarderNtB2_14ProxyForwarder21extract_path_from_url
FNDA:2,_RNvMNtNtCsdAv6ioJvHeS_13tunnel_client5proxy9forwarderNtB2_14ProxyForwarder3new
FNDA:1,_RNvMNtNtCsdAv6ioJvHeS_13tunnel_client5proxy9forwarderNtB2_14ProxyForwarder9get_stats
FNF:19
FNH:9
DA:32,2
DA:33,2
DA:34,2
DA:35,2
DA:36,2
DA:37,2
DA:39,2
DA:40,2
DA:41,2
DA:42,2
DA:43,2
DA:44,2
DA:48,0
DA:62,0
DA:63,0
DA:64,0
DA:65,0
DA:67,0
DA:68,0
DA:69,0
DA:88,0
DA:92,0
DA:93,0
DA:94,0
DA:95,0
DA:96,0
DA:97,0
DA:98,0
DA:99,0
DA:189,0
DA:192,0
DA:193,0
DA:194,0
DA:195,0
DA:196,0
DA:197,0
DA:198,0
DA:199,0
DA:202,0
DA:203,0
DA:204,0
DA:206,0
DA:207,0
DA:210,0
DA:211,0
DA:212,0
DA:213,0
DA:214,0
DA:215,0
DA:216,0
DA:217,0
DA:218,0
DA:219,0
DA:220,0
DA:221,0
DA:222,0
DA:223,0
DA:224,0
DA:225,0
DA:226,0
DA:227,0
DA:228,0
DA:230,0
DA:231,0
DA:232,0
DA:234,0
DA:235,0
DA:238,3
DA:239,3
DA:241,1
DA:242,2
DA:244,1
DA:245,1
DA:246,1
DA:247,1
DA:248,1
DA:249,1
DA:252,1
DA:254,3
DA:257,1
DA:258,1
DA:259,1
DA:263,0
DA:264,0
DA:265,0
DA:266,0
DA:267,0
DA:268,0
DA:269,0
DA:277,2
DA:278,2
DA:279,2
DA:280,2
DA:281,2
DA:282,2
DA:283,2
DA:284,2
DA:285,2
DA:286,2
DA:287,2
DA:288,2
DA:289,2
DA:290,2
DA:291,2
DA:292,2
DA:293,2
DA:294,2
DA:295,2
DA:296,2
DA:299,1
DA:300,1
DA:301,1
DA:302,1
DA:303,1
DA:304,1
DA:305,1
DA:306,1
DA:307,1
DA:308,1
DA:309,1
DA:310,1
DA:312,1
DA:313,1
DA:314,1
DA:315,1
DA:316,1
DA:319,1
DA:320,1
DA:321,1
DA:322,1
DA:323,1
DA:324,1
DA:325,1
DA:326,1
DA:327,1
BRF:0
BRH:0
LF:148
LH:82
end_of_record
SF:/home/femar/A03/Proxy/src/proxy/messages.rs
FN:132,_RNCNvMNtNtCsdAv6ioJvHeS_13tunnel_client5proxy8messagesNtB4_12ProxyMessage9body_size0B8_
FN:133,_RNCNvMNtNtCsdAv6ioJvHeS_13tunnel_client5proxy8messagesNtB4_12ProxyMessage9body_sizes_0B8_
FN:43,_RNvMNtNtCsdAv6ioJvHeS_13tunnel_client5proxy8messagesNtB2_12ProxyMessage12http_request
FN:111,_RNvMNtNtCsdAv6ioJvHeS_13tunnel_client5proxy8messagesNtB2_12ProxyMessage12message_type
FN:60,_RNvMNtNtCsdAv6ioJvHeS_13tunnel_client5proxy8messagesNtB2_12ProxyMessage13http_response
FN:101,_RNvMNtNtCsdAv6ioJvHeS_13tunnel_client5proxy8messagesNtB2_12ProxyMessage2id
FN:77,_RNvMNtNtCsdAv6ioJvHeS_13tunnel_client5proxy8messagesNtB2_12ProxyMessage5error
FN:86,_RNvMNtNtCsdAv6ioJvHeS_13tunnel_client5proxy8messagesNtB2_12ProxyMessage5stats
FN:121,_RNvMNtNtCsdAv6ioJvHeS_13tunnel_client5proxy8messagesNtB2_12ProxyMessage8has_body
FN:130,_RNvMNtNtCsdAv6ioJvHeS_13tunnel_client5proxy8messagesNtB2_12ProxyMessage9body_size
FNDA:0,_RNCNvMNtNtCsdAv6ioJvHeS_13tunnel_client5proxy8messagesNtB4_12ProxyMessage9body_size0B8_
FNDA:0,_RNCNvMNtNtCsdAv6ioJvHeS_13tunnel_client5proxy8messagesNtB4_12ProxyMessage9body_sizes_0B8_
FNDA:0,_RNvMNtNtCsdAv6ioJvHeS_13tunnel_client5proxy8messagesNtB2_12ProxyMessage12http_request
FNDA:0,_RNvMNtNtCsdAv6ioJvHeS_13tunnel_client5proxy8messagesNtB2_12ProxyMessage12message_type
FNDA:0,_RNvMNtNtCsdAv6ioJvHeS_13tunnel_client5proxy8messagesNtB2_12ProxyMessage13http_response
FNDA:0,_RNvMNtNtCsdAv6ioJvHeS_13tunnel_client5proxy8messagesNtB2_12ProxyMessage2id
FNDA:0,_RNvMNtNtCsdAv6ioJvHeS_13tunnel_client5proxy8messagesNtB2_12ProxyMessage5error
FNDA:0,_RNvMNtNtCsdAv6ioJvHeS_13tunnel_client5proxy8messagesNtB2_12ProxyMessage5stats
FNDA:0,_RNvMNtNtCsdAv6ioJvHeS_13tunnel_client5proxy8messagesNtB2_12ProxyMessage8has_body
FNDA:0,_RNvMNtNtCsdAv6ioJvHeS_13tunnel_client5proxy8messagesNtB2_12ProxyMessage9body_size
FNF:10
FNH:0
DA:43,0
DA:44,0
DA:45,0
DA:46,0
DA:47,0
DA:48,0
DA:49,0
DA:50,0
DA:51,0
DA:52,0
DA:53,0
DA:54,0
DA:55,0
DA:56,0
DA:57,0
DA:60,0
DA:61,0
DA:62,0
DA:63,0
DA:64,0
DA:65,0
DA:66,0
DA:67,0
DA:68,0
DA:69,0
DA:70,0
DA:71,0
DA:72,0
DA:73,0
DA:74,0
DA:77,0
DA:78,0
DA:79,0
DA:80,0
DA:81,0
DA:82,0
DA:83,0
DA:86,0
DA:87,0
DA:88,0
DA:89,0
DA:90,0
DA:91,0
DA:92,0
DA:93,0
DA:94,0
DA:95,0
DA:96,0
DA:97,0
DA:98,0
DA:101,0
DA:102,0
DA:103,0
DA:104,0
DA:105,0
DA:106,0
DA:108,0
DA:111,0
DA:112,0
DA:113,0
DA:114,0
DA:115,0
DA:116,0
DA:118,0
DA:121,0
DA:122,0
DA:123,0
DA:124,0
DA:125,0
DA:127,0
DA:130,0
DA:131,0
DA:132,0
DA:133,0
DA:134,0
DA:136,0
BRF:0
BRH:0
LF:78
LH:0
end_of_record
SF:/home/femar/A03/Proxy/src/proxy/mod.rs
FN:17,_RNCNvNtCsdAv6ioJvHeS_13tunnel_client5proxy19run_proxy_forwarder0B5_
FN:14,_RNvNtCsdAv6ioJvHeS_13tunnel_client5proxy19run_proxy_forwarder
FNDA:0,_RNCNvNtCsdAv6ioJvHeS_13tunnel_client5proxy19run_proxy_forwarder0B5_
FNDA:0,_RNvNtCsdAv6ioJvHeS_13tunnel_client5proxy19run_proxy_forwarder
FNF:2
FNH:0
DA:14,0
DA:15,0
DA:16,0
DA:17,0
DA:18,0
DA:21,0
DA:24,0
DA:26,0
DA:27,0
DA:28,0
BRF:0
BRH:0
LF:11
LH:0
end_of_record
SF:/home/femar/A03/Proxy/src/server/api.rs
FN:56,_RNCNvMNtNtCsdAv6ioJvHeS_13tunnel_client6server3apiNtB4_10ApiHandler12handle_stats0B8_
FN:41,_RNCNvMNtNtCsdAv6ioJvHeS_13tunnel_client6server3apiNtB4_10ApiHandler13handle_status0B8_
FN:73,_RNCNvMNtNtCsdAv6ioJvHeS_13tunnel_client6server3apiNtB4_10ApiHandler13handle_config0B8_
FN:24,_RNCNvMNtNtCsdAv6ioJvHeS_13tunnel_client6server3apiNtB4_10ApiHandler14handle_request0B8_
FN:104,_RNCNvMNtNtCsdAv6ioJvHeS_13tunnel_client6server3apiNtB4_10ApiHandler15handle_shutdown0B8_
FN:90,_RNCNvMNtNtCsdAv6ioJvHeS_13tunnel_client6server3apiNtB4_10ApiHandler16handle_reconnect0B8_
FN:73,_RNvMNtNtCsdAv6ioJvHeS_13tunnel_client6server3apiNtB2_10ApiHandler13handle_config
FN:24,_RNvMNtNtCsdAv6ioJvHeS_13tunnel_client6server3apiNtB2_10ApiHandler14handle_request
FN:104,_RNvMNtNtCsdAv6ioJvHeS_13tunnel_client6server3apiNtB2_10ApiHandler15handle_shutdown
FN:118,_RNvMNtNtCsdAv6ioJvHeS_13tunnel_client6server3apiNtB2_10ApiHandler16handle_not_found
FN:90,_RNvMNtNtCsdAv6ioJvHeS_13tunnel_client6server3apiNtB2_10ApiHandler16handle_reconnect
FN:196,_RNCNvNtNtNtCsdAv6ioJvHeS_13tunnel_client6server3api5testss_19test_stats_endpoint0B9_
FN:187,_RNCNvNtNtNtCsdAv6ioJvHeS_13tunnel_client6server3api5testss_20test_status_endpoint0B9_
FN:56,_RNvMNtNtCsdAv6ioJvHeS_13tunnel_client6server3apiNtB2_10ApiHandler12handle_stats
FN:41,_RNvMNtNtCsdAv6ioJvHeS_13tunnel_client6server3apiNtB2_10ApiHandler13handle_status
FN:128,_RNvMNtNtCsdAv6ioJvHeS_13tunnel_client6server3apiNtB2_10ApiHandler13json_response
FN:147,_RNvMNtNtCsdAv6ioJvHeS_13tunnel_client6server3apiNtB2_10ApiHandler21handle_cors_preflight
FN:19,_RNvMNtNtCsdAv6ioJvHeS_13tunnel_client6server3apiNtB2_10ApiHandler3new
FN:165,_RNvNtNtNtCsdAv6ioJvHeS_13tunnel_client6server3api5tests21create_test_app_state
FN:205,_RNvNtNtNtCsdAv6ioJvHeS_13tunnel_client6server3api5testss_19test_cors_preflight
FN:196,_RNvNtNtNtCsdAv6ioJvHeS_13tunnel_client6server3api5testss_19test_stats_endpoint
FN:187,_RNvNtNtNtCsdAv6ioJvHeS_13tunnel_client6server3api5testss_20test_status_endpoint
FNDA:1,_RNCNvMNtNtCsdAv6ioJvHeS_13tunnel_client6server3apiNtB4_10ApiHandler12handle_stats0B8_
FNDA:1,_RNCNvMNtNtCsdAv6ioJvHeS_13tunnel_client6server3apiNtB4_10ApiHandler13handle_status0B8_
FNDA:0,_RNCNvMNtNtCsdAv6ioJvHeS_13tunnel_client6server3apiNtB4_10ApiHandler13handle_config0B8_
FNDA:0,_RNCNvMNtNtCsdAv6ioJvHeS_13tunnel_client6server3apiNtB4_10ApiHandler14handle_request0B8_
FNDA:0,_RNCNvMNtNtCsdAv6ioJvHeS_13tunnel_client6server3apiNtB4_10ApiHandler15handle_shutdown0B8_
FNDA:0,_RNCNvMNtNtCsdAv6ioJvHeS_13tunnel_client6server3apiNtB4_10ApiHandler16handle_reconnect0B8_
FNDA:0,_RNvMNtNtCsdAv6ioJvHeS_13tunnel_client6server3apiNtB2_10ApiHandler13handle_config
FNDA:0,_RNvMNtNtCsdAv6ioJvHeS_13tunnel_client6server3apiNtB2_10ApiHandler14handle_request
FNDA:0,_RNvMNtNtCsdAv6ioJvHeS_13tunnel_client6server3apiNtB2_10ApiHandler15handle_shutdown
FNDA:0,_RNvMNtNtCsdAv6ioJvHeS_13tunnel_client6server3apiNtB2_10ApiHandler16handle_not_found
FNDA:0,_RNvMNtNtCsdAv6ioJvHeS_13tunnel_client6server3apiNtB2_10ApiHandler16handle_reconnect
FNDA:1,_RNCNvNtNtNtCsdAv6ioJvHeS_13tunnel_client6server3api5testss_19test_stats_endpoint0B9_
FNDA:1,_RNCNvNtNtNtCsdAv6ioJvHeS_13tunnel_client6server3api5testss_20test_status_endpoint0B9_
FNDA:1,_RNvMNtNtCsdAv6ioJvHeS_13tunnel_client6server3apiNtB2_10ApiHandler12handle_stats
FNDA:1,_RNvMNtNtCsdAv6ioJvHeS_13tunnel_client6server3apiNtB2_10ApiHandler13handle_status
FNDA:2,_RNvMNtNtCsdAv6ioJvHeS_13tunnel_client6server3apiNtB2_10ApiHandler13json_response
FNDA:1,_RNvMNtNtCsdAv6ioJvHeS_13tunnel_client6server3apiNtB2_10ApiHandler21handle_cors_preflight
FNDA:5,_RNvMNtNtCsdAv6ioJvHeS_13tunnel_client6server3apiNtB2_10ApiHandler3new
FNDA:3,_RNvNtNtNtCsdAv6ioJvHeS_13tunnel_client6server3api5tests21create_test_app_state
FNDA:1,_RNvNtNtNtCsdAv6ioJvHeS_13tunnel_client6server3api5testss_19test_cors_preflight
FNDA:1,_RNvNtNtNtCsdAv6ioJvHeS_13tunnel_client6server3api5testss_19test_stats_endpoint
FNDA:1,_RNvNtNtNtCsdAv6ioJvHeS_13tunnel_client6server3api5testss_20test_status_endpoint
FNF:22
FNH:13
DA:19,5
DA:20,5
DA:21,5
DA:24,0
DA:25,0
DA:26,0
DA:27,0
DA:28,0
DA:30,0
DA:31,0
DA:32,0
DA:33,0
DA:34,0
DA:35,0
DA:36,0
DA:38,0
DA:41,1
DA:42,1
DA:44,1
DA:45,1
DA:46,1
DA:47,1
DA:48,1
DA:49,1
DA:50,1
DA:51,1
DA:52,1
DA:53,1
DA:56,1
DA:57,1
DA:59,1
DA:60,1
DA:61,1
DA:62,1
DA:63,1
DA:64,1
DA:65,1
DA:66,1
DA:67,1
DA:68,1
DA:69,1
DA:70,1
DA:73,0
DA:74,0
DA:75,0
DA:76,0
DA:77,0
DA:78,0
DA:79,0
DA:80,0
DA:81,0
DA:82,0
DA:83,0
DA:84,0
DA:85,0
DA:86,0
DA:87,0
DA:90,0
DA:91,0
DA:92,0
DA:93,0
DA:95,0
DA:96,0
DA:97,0
DA:98,0
DA:99,0
DA:100,0
DA:101,0
DA:104,0
DA:105,0
DA:106,0
DA:107,0
DA:109,0
DA:110,0
DA:111,0
DA:112,0
DA:113,0
DA:114,0
DA:115,0
DA:118,0
DA:119,0
DA:120,0
DA:121,0
DA:122,0
DA:123,0
DA:124,0
DA:125,0
DA:128,2
DA:129,2
DA:130,2
DA:131,2
DA:132,2
DA:133,2
DA:135,2
DA:136,2
DA:137,2
DA:138,2
DA:139,2
DA:140,2
DA:141,2
DA:143,2
DA:144,2
DA:147,1
DA:148,1
DA:149,1
DA:150,1
DA:151,1
DA:152,1
DA:153,1
DA:154,1
DA:156,1
DA:157,1
DA:165,3
DA:166,3
DA:167,3
DA:168,3
DA:169,3
DA:170,3
DA:171,3
DA:172,3
DA:173,3
DA:174,3
DA:175,3
DA:176,3
DA:177,3
DA:178,3
DA:179,3
DA:180,3
DA:181,3
DA:182,3
DA:183,3
DA:184,3
DA:187,1
DA:188,1
DA:189,1
DA:190,1
DA:191,1
DA:192,1
DA:193,1
DA:196,1
DA:197,1
DA:198,1
DA:199,1
DA:200,1
DA:201,1
DA:202,1
DA:205,1
DA:206,1
DA:207,1
DA:208,1
DA:209,1
DA:210,1
DA:212,1
DA:213,1
DA:214,1
DA:215,1
BRF:0
BRH:0
LF:172
LH:110
end_of_record
SF:/home/femar/A03/Proxy/src/server/dashboard.rs
FN:45,_RNvMNtNtCsdAv6ioJvHeS_13tunnel_client6server9dashboardNtB2_16DashboardService12handle_event
FN:218,_RNvMNtNtCsdAv6ioJvHeS_13tunnel_client6server9dashboardNtB2_16DashboardService17get_recent_events
FN:27,_RNvMNtNtCsdAv6ioJvHeS_13tunnel_client6server9dashboardNtB2_16DashboardService3new
FN:239,_RNvNtNtNtCsdAv6ioJvHeS_13tunnel_client6server9dashboard5tests21create_test_app_state
FN:270,_RNvNtNtNtCsdAv6ioJvHeS_13tunnel_client6server9dashboard5testss_19test_event_handling
FN:261,_RNvNtNtNtCsdAv6ioJvHeS_13tunnel_client6server9dashboard5testss_31test_dashboard_service_creation
FN:84,_RNCNCNvMNtNtCsdAv6ioJvHeS_13tunnel_client6server9dashboardNtB6_16DashboardService14handle_request00Ba_
FN:63,_RNCNvMNtNtCsdAv6ioJvHeS_13tunnel_client6server9dashboardNtB4_16DashboardService14handle_request0B8_
FN:100,_RNCNvMNtNtCsdAv6ioJvHeS_13tunnel_client6server9dashboardNtB4_16DashboardService23handle_request_internal0B8_
FN:60,_RNvMNtNtCsdAv6ioJvHeS_13tunnel_client6server9dashboardNtB2_16DashboardService14handle_request
FN:189,_RNvMNtNtCsdAv6ioJvHeS_13tunnel_client6server9dashboardNtB2_16DashboardService16handle_not_found
FN:136,_RNvMNtNtCsdAv6ioJvHeS_13tunnel_client6server9dashboardNtB2_16DashboardService17serve_static_file
FN:97,_RNvMNtNtCsdAv6ioJvHeS_13tunnel_client6server9dashboardNtB2_16DashboardService23handle_request_internal
FN:173,_RNvMNtNtCsdAv6ioJvHeS_13tunnel_client6server9dashboardNtB2_16DashboardService23serve_default_dashboard
FN:224,_RNvXs_NtNtCsdAv6ioJvHeS_13tunnel_client6server9dashboardNtB4_16DashboardServiceNtNtCs9sjCchOt1K7_4core5clone5Clone5clone
FN:270,_RNCNvNtNtNtCsdAv6ioJvHeS_13tunnel_client6server9dashboard5testss_19test_event_handling0B9_
FN:261,_RNCNvNtNtNtCsdAv6ioJvHeS_13tunnel_client6server9dashboard5testss_31test_dashboard_service_creation0B9_
FN:45,_RNCNvMNtNtCsdAv6ioJvHeS_13tunnel_client6server9dashboardNtB4_16DashboardService12handle_event0B8_
FN:218,_RNCNvMNtNtCsdAv6ioJvHeS_13tunnel_client6server9dashboardNtB4_16DashboardService17get_recent_events0B8_
FNDA:1,_RNvMNtNtCsdAv6ioJvHeS_13tunnel_client6server9dashboardNtB2_16DashboardService12handle_event
FNDA:2,_RNvMNtNtCsdAv6ioJvHeS_13tunnel_client6server9dashboardNtB2_16DashboardService17get_recent_events
FNDA:2,_RNvMNtNtCsdAv6ioJvHeS_13tunnel_client6server9dashboardNtB2_16DashboardService3new
FNDA:2,_RNvNtNtNtCsdAv6ioJvHeS_13tunnel_client6server9dashboard5tests21create_test_app_state
FNDA:1,_RNvNtNtNtCsdAv6ioJvHeS_13tunnel_client6server9dashboard5testss_19test_event_handling
FNDA:1,_RNvNtNtNtCsdAv6ioJvHeS_13tunnel_client6server9dashboard5testss_31test_dashboard_service_creation
FNDA:0,_RNCNCNvMNtNtCsdAv6ioJvHeS_13tunnel_client6server9dashboardNtB6_16DashboardService14handle_request00Ba_
FNDA:0,_RNCNvMNtNtCsdAv6ioJvHeS_13tunnel_client6server9dashboardNtB4_16DashboardService14handle_request0B8_
FNDA:0,_RNCNvMNtNtCsdAv6ioJvHeS_13tunnel_client6server9dashboardNtB4_16DashboardService23handle_request_internal0B8_
FNDA:0,_RNvMNtNtCsdAv6ioJvHeS_13tunnel_client6server9dashboardNtB2_16DashboardService14handle_request
FNDA:0,_RNvMNtNtCsdAv6ioJvHeS_13tunnel_client6server9dashboardNtB2_16DashboardService16handle_not_found
FNDA:0,_RNvMNtNtCsdAv6ioJvHeS_13tunnel_client6server9dashboardNtB2_16DashboardService17serve_static_file
FNDA:0,_RNvMNtNtCsdAv6ioJvHeS_13tunnel_client6server9dashboardNtB2_16DashboardService23handle_request_internal
FNDA:0,_RNvMNtNtCsdAv6ioJvHeS_13tunnel_client6server9dashboardNtB2_16DashboardService23serve_default_dashboard
FNDA:0,_RNvXs_NtNtCsdAv6ioJvHeS_13tunnel_client6server9dashboardNtB4_16DashboardServiceNtNtCs9sjCchOt1K7_4core5clone5Clone5clone
FNDA:1,_RNCNvNtNtNtCsdAv6ioJvHeS_13tunnel_client6server9dashboard5testss_19test_event_handling0B9_
FNDA:1,_RNCNvNtNtNtCsdAv6ioJvHeS_13tunnel_client6server9dashboard5testss_31test_dashboard_service_creation0B9_
FNDA:1,_RNCNvMNtNtCsdAv6ioJvHeS_13tunnel_client6server9dashboardNtB4_16DashboardService12handle_event0B8_
FNDA:2,_RNCNvMNtNtCsdAv6ioJvHeS_13tunnel_client6server9dashboardNtB4_16DashboardService17get_recent_events0B8_
FNF:19
FNH:10
DA:27,2
DA:28,2
DA:29,2
DA:30,2
DA:31,2
DA:32,2
DA:33,2
DA:34,2
DA:35,2
DA:36,2
DA:37,2
DA:38,2
DA:39,2
DA:40,2
DA:41,2
DA:42,2
DA:45,1
DA:46,1
DA:49,1
DA:50,1
DA:51,1
DA:52,1
DA:53,1
DA:54,0
DA:55,0
DA:56,1
DA:57,1
DA:60,0
DA:61,0
DA:62,0
DA:63,0
DA:64,0
DA:65,0
DA:66,0
DA:67,0
DA:68,0
DA:70,0
DA:72,0
DA:73,0
DA:74,0
DA:75,0
DA:78,0
DA:79,0
DA:80,0
DA:81,0
DA:82,0
DA:83,0
DA:84,0
DA:85,0
DA:86,0
DA:87,0
DA:88,0
DA:89,0
DA:90,0
DA:91,0
DA:94,0
DA:97,0
DA:98,0
DA:99,0
DA:100,0
DA:101,0
DA:102,0
DA:103,0
DA:104,0
DA:105,0
DA:106,0
DA:107,0
DA:108,0
DA:109,0
DA:110,0
DA:111,0
DA:112,0
DA:115,0
DA:116,0
DA:117,0
DA:118,0
DA:119,0
DA:120,0
DA:121,0
DA:122,0
DA:123,0
DA:124,0
DA:127,0
DA:128,0
DA:129,0
DA:130,0
DA:131,0
DA:132,0
DA:133,0
DA:136,0
DA:137,0
DA:138,0
DA:139,0
DA:140,0
DA:142,0
DA:143,0
DA:144,0
DA:145,0
DA:146,0
DA:147,0
DA:148,0
DA:149,0
DA:150,0
DA:151,0
DA:153,0
DA:154,0
DA:155,0
DA:156,0
DA:157,0
DA:158,0
DA:159,0
DA:160,0
DA:161,0
DA:162,0
DA:163,0
DA:164,0
DA:165,0
DA:167,0
DA:168,0
DA:169,0
DA:170,0
DA:173,0
DA:174,0
DA:176,0
DA:177,0
DA:178,0
DA:179,0
DA:180,0
DA:181,0
DA:182,0
DA:184,0
DA:186,0
DA:189,0
DA:190,0
DA:191,0
DA:192,0
DA:193,0
DA:194,0
DA:195,0
DA:196,0
DA:197,0
DA:198,0
DA:199,0
DA:200,0
DA:201,0
DA:202,0
DA:203,0
DA:204,0
DA:205,0
DA:206,0
DA:208,0
DA:209,0
DA:210,0
DA:211,0
DA:212,0
DA:214,0
DA:215,0
DA:218,2
DA:219,2
DA:220,2
DA:224,0
DA:225,0
DA:226,0
DA:227,0
DA:228,0
DA:229,0
DA:230,0
DA:231,0
DA:239,2
DA:240,2
DA:241,2
DA:242,2
DA:243,2
DA:244,2
DA:245,2
DA:246,2
DA:247,2
DA:248,2
DA:249,2
DA:250,2
DA:251,2
DA:252,2
DA:253,2
DA:254,2
DA:255,2
DA:256,2
DA:257,2
DA:258,2
DA:261,1
DA:262,1
DA:263,1
DA:264,1
DA:265,1
DA:266,1
DA:267,1
DA:270,1
DA:271,1
DA:272,1
DA:273,1
DA:274,1
DA:275,1
DA:276,1
DA:277,1
DA:278,1
DA:279,1
BRF:0
BRH:0
LF:224
LH:80
end_of_record
SF:/home/femar/A03/Proxy/src/server/mod.rs
FN:65,_RNCNCNCNCNCNvNtCsdAv6ioJvHeS_13tunnel_client6server20run_dashboard_server0s_0000Bd_
FN:63,_RNCNCNCNCNvNtCsdAv6ioJvHeS_13tunnel_client6server20run_dashboard_server0s_000Bb_
FN:58,_RNCNCNCNvNtCsdAv6ioJvHeS_13tunnel_client6server20run_dashboard_server0s_00B9_
FN:37,_RNCNCNvNtCsdAv6ioJvHeS_13tunnel_client6server20run_dashboard_server00B7_
FN:53,_RNCNCNvNtCsdAv6ioJvHeS_13tunnel_client6server20run_dashboard_server0s_0B7_
FN:22,_RNCNvNtCsdAv6ioJvHeS_13tunnel_client6server20run_dashboard_server0B5_
FN:19,_RNvNtCsdAv6ioJvHeS_13tunnel_client6server20run_dashboard_server
FNDA:0,_RNCNCNCNCNCNvNtCsdAv6ioJvHeS_13tunnel_client6server20run_dashboard_server0s_0000Bd_
FNDA:0,_RNCNCNCNCNvNtCsdAv6ioJvHeS_13tunnel_client6server20run_dashboard_server0s_000Bb_
FNDA:0,_RNCNCNCNvNtCsdAv6ioJvHeS_13tunnel_client6server20run_dashboard_server0s_00B9_
FNDA:0,_RNCNCNvNtCsdAv6ioJvHeS_13tunnel_client6server20run_dashboard_server00B7_
FNDA:0,_RNCNCNvNtCsdAv6ioJvHeS_13tunnel_client6server20run_dashboard_server0s_0B7_
FNDA:0,_RNCNvNtCsdAv6ioJvHeS_13tunnel_client6server20run_dashboard_server0B5_
FNDA:0,_RNvNtCsdAv6ioJvHeS_13tunnel_client6server20run_dashboard_server
FNF:7
FNH:0
DA:19,0
DA:20,0
DA:21,0
DA:22,0
DA:23,0
DA:24,0
DA:25,0
DA:26,0
DA:27,0
DA:29,0
DA:32,0
DA:33,0
DA:34,0
DA:35,0
DA:36,0
DA:37,0
DA:38,0
DA:39,0
DA:41,0
DA:42,0
DA:46,0
DA:47,0
DA:48,0
DA:50,0
DA:53,0
DA:55,0
DA:56,0
DA:57,0
DA:58,0
DA:59,0
DA:60,0
DA:61,0
DA:62,0
DA:63,0
DA:64,0
DA:65,0
DA:66,0
DA:67,0
DA:68,0
DA:70,0
DA:71,0
DA:72,0
DA:73,0
DA:74,0
DA:75,0
DA:79,0
DA:80,0
DA:81,0
DA:82,0
DA:83,0
DA:84,0
DA:85,0
DA:86,0
DA:88,0
DA:89,0
DA:90,0
DA:91,0
DA:95,0
DA:96,0
DA:97,0
BRF:0
BRH:0
LF:68
LH:0
end_of_record
SF:/home/femar/A03/Proxy/src/server/static_files.rs
FN:130,_RNCNvMNtNtCsdAv6ioJvHeS_13tunnel_client6server12static_filesNtB4_17StaticFileHandler9get_stats0B8_
FN:113,_RNvMNtNtCsdAv6ioJvHeS_13tunnel_client6server12static_filesNtB2_17StaticFileHandler10list_files
FN:108,_RNvMNtNtCsdAv6ioJvHeS_13tunnel_client6server12static_filesNtB2_17StaticFileHandler14is_static_file
FN:128,_RNvMNtNtCsdAv6ioJvHeS_13tunnel_client6server12static_filesNtB2_17StaticFileHandler9get_stats
FN:140,_RNvXs_NtNtCsdAv6ioJvHeS_13tunnel_client6server12static_filesNtB4_17StaticFileHandlerNtNtCs9sjCchOt1K7_4core7default7Default7default
FN:230,_RNvNtNtNtCsdAv6ioJvHeS_13tunnel_client6server12static_files5testss_24test_static_file_handler
FN:241,_RNvNtNtNtCsdAv6ioJvHeS_13tunnel_client6server12static_files5testss_25test_default_static_files
FN:118,_RNvMNtNtCsdAv6ioJvHeS_13tunnel_client6server12static_filesNtB2_17StaticFileHandler13generate_etag
FN:33,_RNvMNtNtCsdAv6ioJvHeS_13tunnel_client6server12static_filesNtB2_17StaticFileHandler17load_static_files
FN:38,_RNvMNtNtCsdAv6ioJvHeS_13tunnel_client6server12static_filesNtB2_17StaticFileHandler20load_files_recursive
FN:23,_RNvMNtNtCsdAv6ioJvHeS_13tunnel_client6server12static_filesNtB2_17StaticFileHandler3new
FN:95,_RNvMNtNtCsdAv6ioJvHeS_13tunnel_client6server12static_filesNtB2_17StaticFileHandler8get_file
FN:153,_RNvNtNtCsdAv6ioJvHeS_13tunnel_client6server12static_files27create_default_static_files
FNDA:0,_RNCNvMNtNtCsdAv6ioJvHeS_13tunnel_client6server12static_filesNtB4_17StaticFileHandler9get_stats0B8_
FNDA:0,_RNvMNtNtCsdAv6ioJvHeS_13tunnel_client6server12static_filesNtB2_17StaticFileHandler10list_files
FNDA:0,_RNvMNtNtCsdAv6ioJvHeS_13tunnel_client6server12static_filesNtB2_17StaticFileHandler14is_static_file
FNDA:0,_RNvMNtNtCsdAv6ioJvHeS_13tunnel_client6server12static_filesNtB2_17StaticFileHandler9get_stats
FNDA:0,_RNvXs_NtNtCsdAv6ioJvHeS_13tunnel_client6server12static_filesNtB4_17StaticFileHandlerNtNtCs9sjCchOt1K7_4core7default7Default7default
FNDA:1,_RNvNtNtNtCsdAv6ioJvHeS_13tunnel_client6server12static_files5testss_24test_static_file_handler
FNDA:1,_RNvNtNtNtCsdAv6ioJvHeS_13tunnel_client6server12static_files5testss_25test_default_static_files
FNDA:9,_RNvMNtNtCsdAv6ioJvHeS_13tunnel_client6server12static_filesNtB2_17StaticFileHandler13generate_etag
FNDA:3,_RNvMNtNtCsdAv6ioJvHeS_13tunnel_client6server12static_filesNtB2_17StaticFileHandler17load_static_files
FNDA:9,_RNvMNtNtCsdAv6ioJvHeS_13tunnel_client6server12static_filesNtB2_17StaticFileHandler20load_files_recursive
FNDA:3,_RNvMNtNtCsdAv6ioJvHeS_13tunnel_client6server12static_filesNtB2_17StaticFileHandler3new
FNDA:2,_RNvMNtNtCsdAv6ioJvHeS_13tunnel_client6server12static_filesNtB2_17StaticFileHandler8get_file
FNDA:1,_RNvNtNtCsdAv6ioJvHeS_13tunnel_client6server12static_files27create_default_static_files
FNF:13
FNH:8
DA:23,3
DA:24,3
DA:25,3
DA:26,3
DA:27,3
DA:28,3
DA:29,3
DA:30,3
DA:33,3
DA:34,3
DA:35,3
DA:38,9
DA:39,15
DA:40,15
DA:41,6
DA:42,6
DA:43,6
DA:44,6
DA:45,6
DA:46,6
DA:47,6
DA:48,6
DA:49,6
DA:51,0
DA:52,0
DA:53,0
DA:54,0
DA:55,0
DA:57,6
DA:59,9
DA:60,9
DA:61,3
DA:62,3
DA:63,3
DA:64,3
DA:65,3
DA:66,3
DA:68,6
DA:69,6
DA:70,6
DA:71,6
DA:72,6
DA:75,9
DA:76,9
DA:77,9
DA:78,9
DA:79,9
DA:80,9
DA:81,9
DA:82,9
DA:83,9
DA:84,9
DA:85,9
DA:86,9
DA:87,9
DA:88,9
DA:92,9
DA:95,2
DA:96,2
DA:97,2
DA:98,2
DA:99,2
DA:100,2
DA:101,0
DA:102,2
DA:103,2
DA:104,2
DA:105,2
DA:108,0
DA:109,0
DA:110,0
DA:113,0
DA:114,0
DA:115,0
DA:118,9
DA:122,9
DA:123,9
DA:124,9
DA:125,9
DA:128,0
DA:129,0
DA:130,0
DA:131,0
DA:132,0
DA:133,0
DA:134,0
DA:135,0
DA:136,0
DA:140,0
DA:141,0
DA:142,0
DA:153,1
DA:154,1
DA:155,1
DA:156,1
DA:157,1
DA:158,1
DA:159,1
DA:160,1
DA:161,1
DA:162,1
DA:163,1
DA:164,1
DA:165,1
DA:166,1
DA:167,1
DA:168,1
DA:169,1
DA:170,1
DA:171,1
DA:172,1
DA:173,1
DA:174,1
DA:175,1
DA:176,1
DA:177,1
DA:178,1
DA:179,1
DA:180,1
DA:181,1
DA:182,1
DA:183,1
DA:184,1
DA:185,1
DA:186,1
DA:187,1
DA:188,1
DA:189,1
DA:190,1
DA:191,1
DA:192,1
DA:193,1
DA:194,1
DA:195,1
DA:196,1
DA:197,1
DA:198,1
DA:199,1
DA:200,1
DA:201,1
DA:202,1
DA:203,1
DA:204,1
DA:205,1
DA:206,1
DA:207,1
DA:208,1
DA:209,1
DA:210,1
DA:211,1
DA:212,1
DA:213,1
DA:214,1
DA:215,1
DA:216,1
DA:217,1
DA:218,1
DA:219,1
DA:220,1
DA:221,1
DA:222,1
DA:223,1
DA:230,1
DA:231,1
DA:232,1
DA:233,1
DA:234,1
DA:235,1
DA:236,1
DA:237,1
DA:238,1
DA:241,1
DA:242,1
DA:243,1
DA:244,1
DA:246,1
DA:247,1
DA:248,1
DA:249,1
BRF:0
BRH:0
LF:180
LH:155
end_of_record
SF:/home/femar/A03/Proxy/src/utils/error.rs
FN:51,_RNvMNtNtCsdAv6ioJvHeS_13tunnel_client5utils5errorNtB2_11TunnelError14is_recoverable
FN:71,_RNvMNtNtCsdAv6ioJvHeS_13tunnel_client5utils5errorNtB2_11TunnelError8category
FN:89,_RNvXs_NtNtCsdAv6ioJvHeS_13tunnel_client5utils5errorNtB4_11TunnelErrorINtNtCs9sjCchOt1K7_4core7convert4FromNtCs4dAbspWxxWs_6anyhow5ErrorE4from
FNDA:0,_RNvMNtNtCsdAv6ioJvHeS_13tunnel_client5utils5errorNtB2_11TunnelError14is_recoverable
FNDA:0,_RNvMNtNtCsdAv6ioJvHeS_13tunnel_client5utils5errorNtB2_11TunnelError8category
FNDA:0,_RNvXs_NtNtCsdAv6ioJvHeS_13tunnel_client5utils5errorNtB4_11TunnelErrorINtNtCs9sjCchOt1K7_4core7convert4FromNtCs4dAbspWxxWs_6anyhow5ErrorE4from
FNF:3
FNH:0
DA:51,0
DA:52,0
DA:53,0
DA:54,0
DA:55,0
DA:56,0
DA:57,0
DA:58,0
DA:59,0
DA:60,0
DA:61,0
DA:62,0
DA:63,0
DA:64,0
DA:65,0
DA:66,0
DA:68,0
DA:71,0
DA:72,0
DA:73,0
DA:74,0
DA:75,0
DA:76,0
DA:77,0
DA:78,0
DA:79,0
DA:80,0
DA:81,0
DA:82,0
DA:84,0
DA:89,0
DA:90,0
DA:91,0
BRF:0
BRH:0
LF:33
LH:0
end_of_record
SF:/home/femar/A03/Proxy/src/utils/signals.rs
FN:6,_RNCNCNvNtNtCsdAv6ioJvHeS_13tunnel_client5utils7signals17wait_for_shutdown00B9_
FN:13,_RNCNCNvNtNtCsdAv6ioJvHeS_13tunnel_client5utils7signals17wait_for_shutdown0s_0B9_
FN:5,_RNCNvNtNtCsdAv6ioJvHeS_13tunnel_client5utils7signals17wait_for_shutdown0B7_
FN:56,_RNCNvNtNtCsdAv6ioJvHeS_13tunnel_client5utils7signals20force_shutdown_after0B7_
FN:44,_RNCNvNtNtCsdAv6ioJvHeS_13tunnel_client5utils7signals21setup_signal_handlers0B7_
FN:5,_RNvNtNtCsdAv6ioJvHeS_13tunnel_client5utils7signals17wait_for_shutdown
FN:56,_RNvNtNtCsdAv6ioJvHeS_13tunnel_client5utils7signals20force_shutdown_after
FN:36,_RNvNtNtCsdAv6ioJvHeS_13tunnel_client5utils7signals21setup_signal_handlers
FNDA:0,_RNCNCNvNtNtCsdAv6ioJvHeS_13tunnel_client5utils7signals17wait_for_shutdown00B9_
FNDA:0,_RNCNCNvNtNtCsdAv6ioJvHeS_13tunnel_client5utils7signals17wait_for_shutdown0s_0B9_
FNDA:0,_RNCNvNtNtCsdAv6ioJvHeS_13tunnel_client5utils7signals17wait_for_shutdown0B7_
FNDA:0,_RNCNvNtNtCsdAv6ioJvHeS_13tunnel_client5utils7signals20force_shutdown_after0B7_
FNDA:0,_RNCNvNtNtCsdAv6ioJvHeS_13tunnel_client5utils7signals21setup_signal_handlers0B7_
FNDA:0,_RNvNtNtCsdAv6ioJvHeS_13tunnel_client5utils7signals17wait_for_shutdown
FNDA:0,_RNvNtNtCsdAv6ioJvHeS_13tunnel_client5utils7signals20force_shutdown_after
FNDA:0,_RNvNtNtCsdAv6ioJvHeS_13tunnel_client5utils7signals21setup_signal_handlers
FNF:8
FNH:0
DA:5,0
DA:6,0
DA:7,0
DA:8,0
DA:9,0
DA:10,0
DA:13,0
DA:14,0
DA:15,0
DA:16,0
DA:17,0
DA:18,0
DA:23,0
DA:24,0
DA:25,0
DA:27,0
DA:28,0
DA:32,0
DA:33,0
DA:36,0
DA:37,0
DA:38,0
DA:39,0
DA:40,0
DA:41,0
DA:42,0
DA:43,0
DA:44,0
DA:45,0
DA:46,0
DA:48,0
DA:49,0
DA:51,0
DA:52,0
DA:53,0
DA:56,0
DA:57,0
DA:58,0
DA:59,0
BRF:0
BRH:0
LF:45
LH:0
end_of_record
SF:/home/femar/A03/Proxy/src/websocket/client.rs
FN:176,_RNCNCNCNvMNtNtCsdAv6ioJvHeS_13tunnel_client9websocket6clientNtB8_15WebSocketClient15connect_and_run000Bc_
FN:131,_RNCNvMNtNtCsdAv6ioJvHeS_13tunnel_client9websocket6clientNtB4_15WebSocketClient15connect_and_run0B8_
FN:341,_RNCNvMNtNtCsdAv6ioJvHeS_13tunnel_client9websocket6clientNtB4_15WebSocketClient20send_queued_messages0B8_
FN:301,_RNCNvMNtNtCsdAv6ioJvHeS_13tunnel_client9websocket6clientNtB4_15WebSocketClient22send_message_to_stream0B8_
FN:250,_RNCNvMNtNtCsdAv6ioJvHeS_13tunnel_client9websocket6clientNtB4_15WebSocketClient23handle_incoming_message0B8_
FN:47,_RNCNvMNtNtCsdAv6ioJvHeS_13tunnel_client9websocket6clientNtB4_15WebSocketClient3run0B8_
FN:131,_RNvMNtNtCsdAv6ioJvHeS_13tunnel_client9websocket6clientNtB2_15WebSocketClient15connect_and_run
FN:341,_RNvMNtNtCsdAv6ioJvHeS_13tunnel_client9websocket6clientNtB2_15WebSocketClient20send_queued_messages
FN:297,_RNvMNtNtCsdAv6ioJvHeS_13tunnel_client9websocket6clientNtB2_15WebSocketClient22send_message_to_stream
FN:250,_RNvMNtNtCsdAv6ioJvHeS_13tunnel_client9websocket6clientNtB2_15WebSocketClient23handle_incoming_message
FN:47,_RNvMNtNtCsdAv6ioJvHeS_13tunnel_client9websocket6clientNtB2_15WebSocketClient3run
FN:393,_RNvNtNtNtCsdAv6ioJvHeS_13tunnel_client9websocket6client5tests21create_test_app_state
FN:425,_RNvNtNtNtCsdAv6ioJvHeS_13tunnel_client9websocket6client5testss_21test_message_queueing
FN:415,_RNvNtNtNtCsdAv6ioJvHeS_13tunnel_client9websocket6client5testss_30test_websocket_client_creation
FN:425,_RNCNvNtNtNtCsdAv6ioJvHeS_13tunnel_client9websocket6client5testss_21test_message_queueing0B9_
FN:415,_RNCNvNtNtNtCsdAv6ioJvHeS_13tunnel_client9websocket6client5testss_30test_websocket_client_creation0B9_
FN:320,_RNvMNtNtCsdAv6ioJvHeS_13tunnel_client9websocket6clientNtB2_15WebSocketClient12send_message
FN:26,_RNvMNtNtCsdAv6ioJvHeS_13tunnel_client9websocket6clientNtB2_15WebSocketClient3new
FN:363,_RNvMNtNtCsdAv6ioJvHeS_13tunnel_client9websocket6clientNtB2_15WebSocketClient9get_stats
FN:326,_RNCNCNvMNtNtCsdAv6ioJvHeS_13tunnel_client9websocket6clientNtB6_15WebSocketClient12send_message00Ba_
FN:320,_RNCNvMNtNtCsdAv6ioJvHeS_13tunnel_client9websocket6clientNtB4_15WebSocketClient12send_message0B8_
FN:363,_RNCNvMNtNtCsdAv6ioJvHeS_13tunnel_client9websocket6clientNtB4_15WebSocketClient9get_stats0B8_
FNDA:0,_RNCNCNCNvMNtNtCsdAv6ioJvHeS_13tunnel_client9websocket6clientNtB8_15WebSocketClient15connect_and_run000Bc_
FNDA:0,_RNCNvMNtNtCsdAv6ioJvHeS_13tunnel_client9websocket6clientNtB4_15WebSocketClient15connect_and_run0B8_
FNDA:0,_RNCNvMNtNtCsdAv6ioJvHeS_13tunnel_client9websocket6clientNtB4_15WebSocketClient20send_queued_messages0B8_
FNDA:0,_RNCNvMNtNtCsdAv6ioJvHeS_13tunnel_client9websocket6clientNtB4_15WebSocketClient22send_message_to_stream0B8_
FNDA:0,_RNCNvMNtNtCsdAv6ioJvHeS_13tunnel_client9websocket6clientNtB4_15WebSocketClient23handle_incoming_message0B8_
FNDA:0,_RNCNvMNtNtCsdAv6ioJvHeS_13tunnel_client9websocket6clientNtB4_15WebSocketClient3run0B8_
FNDA:0,_RNvMNtNtCsdAv6ioJvHeS_13tunnel_client9websocket6clientNtB2_15WebSocketClient15connect_and_run
FNDA:0,_RNvMNtNtCsdAv6ioJvHeS_13tunnel_client9websocket6clientNtB2_15WebSocketClient20send_queued_messages
FNDA:0,_RNvMNtNtCsdAv6ioJvHeS_13tunnel_client9websocket6clientNtB2_15WebSocketClient22send_message_to_stream
FNDA:0,_RNvMNtNtCsdAv6ioJvHeS_13tunnel_client9websocket6clientNtB2_15WebSocketClient23handle_incoming_message
FNDA:0,_RNvMNtNtCsdAv6ioJvHeS_13tunnel_client9websocket6clientNtB2_15WebSocketClient3run
FNDA:2,_RNvNtNtNtCsdAv6ioJvHeS_13tunnel_client9websocket6client5tests21create_test_app_state
FNDA:1,_RNvNtNtNtCsdAv6ioJvHeS_13tunnel_client9websocket6client5testss_21test_message_queueing
FNDA:1,_RNvNtNtNtCsdAv6ioJvHeS_13tunnel_client9websocket6client5testss_30test_websocket_client_creation
FNDA:1,_RNCNvNtNtNtCsdAv6ioJvHeS_13tunnel_client9websocket6client5testss_21test_message_queueing0B9_
FNDA:1,_RNCNvNtNtNtCsdAv6ioJvHeS_13tunnel_client9websocket6client5testss_30test_websocket_client_creation0B9_
FNDA:1,_RNvMNtNtCsdAv6ioJvHeS_13tunnel_client9websocket6clientNtB2_15WebSocketClient12send_message
FNDA:2,_RNvMNtNtCsdAv6ioJvHeS_13tunnel_client9websocket6clientNtB2_15WebSocketClient3new
FNDA:2,_RNvMNtNtCsdAv6ioJvHeS_13tunnel_client9websocket6clientNtB2_15WebSocketClient9get_stats
FNDA:0,_RNCNCNvMNtNtCsdAv6ioJvHeS_13tunnel_client9websocket6clientNtB6_15WebSocketClient12send_message00Ba_
FNDA:1,_RNCNvMNtNtCsdAv6ioJvHeS_13tunnel_client9websocket6clientNtB4_15WebSocketClient12send_message0B8_
FNDA:2,_RNCNvMNtNtCsdAv6ioJvHeS_13tunnel_client9websocket6clientNtB4_15WebSocketClient9get_stats0B8_
FNF:22
FNH:10
DA:26,2
DA:27,2
DA:28,2
DA:29,2
DA:30,2
DA:31,2
DA:32,2
DA:33,2
DA:34,2
DA:35,2
DA:36,2
DA:37,2
DA:38,2
DA:39,2
DA:40,2
DA:41,2
DA:42,2
DA:43,2
DA:47,0
DA:127,0
DA:131,0
DA:176,0
DA:177,0
DA:178,0
DA:181,0
DA:183,0
DA:184,0
DA:185,0
DA:186,0
DA:187,0
DA:188,0
DA:190,0
DA:246,0
DA:250,0
DA:251,0
DA:294,0
DA:297,0
DA:298,0
DA:299,0
DA:300,0
DA:301,0
DA:302,0
DA:303,0
DA:304,0
DA:306,0
DA:307,0
DA:310,0
DA:311,0
DA:312,0
DA:313,0
DA:315,0
DA:316,0
DA:317,0
DA:320,1
DA:321,1
DA:323,1
DA:325,0
DA:326,0
DA:329,1
DA:330,0
DA:331,0
DA:333,1
DA:334,1
DA:337,1
DA:338,1
DA:341,0
DA:342,0
DA:343,0
DA:344,0
DA:345,0
DA:346,0
DA:348,0
DA:349,0
DA:350,0
DA:351,0
DA:352,0
DA:353,0
DA:354,0
DA:356,0
DA:357,0
DA:359,0
DA:360,0
DA:363,2
DA:364,2
DA:365,2
DA:366,2
DA:367,2
DA:368,2
DA:369,2
DA:370,2
DA:371,2
DA:372,2
DA:373,2
DA:374,2
DA:375,2
DA:393,2
DA:394,2
DA:395,2
DA:396,2
DA:397,2
DA:398,2
DA:399,2
DA:400,2
DA:401,2
DA:402,2
DA:403,2
DA:404,2
DA:405,2
DA:406,2
DA:407,2
DA:408,2
DA:409,2
DA:410,2
DA:411,2
DA:412,2
DA:415,1
DA:416,1
DA:417,1
DA:418,1
DA:419,1
DA:420,1
DA:421,1
DA:422,1
DA:425,1
DA:426,1
DA:427,1
DA:428,1
DA:429,1
DA:430,1
DA:431,1
DA:432,1
DA:433,1
DA:434,1
BRF:0
BRH:0
LF:155
LH:93
end_of_record
SF:/home/femar/A03/Proxy/src/websocket/messages.rs
FN:294,_RNvNtNtNtCsdAv6ioJvHeS_13tunnel_client9websocket8messages5testss_23test_ping_pong_messages
FN:276,_RNvNtNtNtCsdAv6ioJvHeS_13tunnel_client9websocket8messages5testss_25test_http_request_message
FN:264,_RNvNtNtNtCsdAv6ioJvHeS_13tunnel_client9websocket8messages5testss_26test_message_serialization
FN:76,_RNvMNtNtCsdAv6ioJvHeS_13tunnel_client9websocket8messagesNtB2_13TunnelMessage10auth_error
FN:217,_RNvMNtNtCsdAv6ioJvHeS_13tunnel_client9websocket8messagesNtB2_13TunnelMessage10request_id
FN:195,_RNvMNtNtCsdAv6ioJvHeS_13tunnel_client9websocket8messagesNtB2_13TunnelMessage11from_binary
FN:71,_RNvMNtNtCsdAv6ioJvHeS_13tunnel_client9websocket8messagesNtB2_13TunnelMessage12auth_success
FN:114,_RNvMNtNtCsdAv6ioJvHeS_13tunnel_client9websocket8messagesNtB2_13TunnelMessage13http_response
FN:97,_RNvMNtNtCsdAv6ioJvHeS_13tunnel_client9websocket8messagesNtB2_13TunnelMessage20http_request_with_id
FN:131,_RNvMNtNtCsdAv6ioJvHeS_13tunnel_client9websocket8messagesNtB2_13TunnelMessage5error
FN:164,_RNvMNtNtCsdAv6ioJvHeS_13tunnel_client9websocket8messagesNtB2_13TunnelMessage5stats
FN:173,_RNvMNtNtCsdAv6ioJvHeS_13tunnel_client9websocket8messagesNtB2_13TunnelMessage6status
FN:188,_RNvMNtNtCsdAv6ioJvHeS_13tunnel_client9websocket8messagesNtB2_13TunnelMessage9to_binary
FN:238,_RNCNvMNtNtCsdAv6ioJvHeS_13tunnel_client9websocket8messagesNtB4_13TunnelMessage9body_size0B8_
FN:239,_RNCNvMNtNtCsdAv6ioJvHeS_13tunnel_client9websocket8messagesNtB4_13TunnelMessage9body_sizes_0B8_
FN:81,_RNvMNtNtCsdAv6ioJvHeS_13tunnel_client9websocket8messagesNtB2_13TunnelMessage12http_request
FN:201,_RNvMNtNtCsdAv6ioJvHeS_13tunnel_client9websocket8messagesNtB2_13TunnelMessage12message_type
FN:227,_RNvMNtNtCsdAv6ioJvHeS_13tunnel_client9websocket8messagesNtB2_13TunnelMessage15has_binary_data
FN:140,_RNvMNtNtCsdAv6ioJvHeS_13tunnel_client9websocket8messagesNtB2_13TunnelMessage17error_for_request
FN:245,_RNvMNtNtCsdAv6ioJvHeS_13tunnel_client9websocket8messagesNtB2_13TunnelMessage18is_control_message
FN:66,_RNvMNtNtCsdAv6ioJvHeS_13tunnel_client9websocket8messagesNtB2_13TunnelMessage4auth
FN:149,_RNvMNtNtCsdAv6ioJvHeS_13tunnel_client9websocket8messagesNtB2_13TunnelMessage4ping
FN:159,_RNvMNtNtCsdAv6ioJvHeS_13tunnel_client9websocket8messagesNtB2_13TunnelMessage4pong
FN:178,_RNvMNtNtCsdAv6ioJvHeS_13tunnel_client9websocket8messagesNtB2_13TunnelMessage7to_json
FN:236,_RNvMNtNtCsdAv6ioJvHeS_13tunnel_client9websocket8messagesNtB2_13TunnelMessage9body_size
FN:183,_RNvMNtNtCsdAv6ioJvHeS_13tunnel_client9websocket8messagesNtB2_13TunnelMessage9from_json
FNDA:1,_RNvNtNtNtCsdAv6ioJvHeS_13tunnel_client9websocket8messages5testss_23test_ping_pong_messages
FNDA:1,_RNvNtNtNtCsdAv6ioJvHeS_13tunnel_client9websocket8messages5testss_25test_http_request_message
FNDA:1,_RNvNtNtNtCsdAv6ioJvHeS_13tunnel_client9websocket8messages5testss_26test_message_serialization
FNDA:0,_RNvMNtNtCsdAv6ioJvHeS_13tunnel_client9websocket8messagesNtB2_13TunnelMessage10auth_error
FNDA:0,_RNvMNtNtCsdAv6ioJvHeS_13tunnel_client9websocket8messagesNtB2_13TunnelMessage10request_id
FNDA:0,_RNvMNtNtCsdAv6ioJvHeS_13tunnel_client9websocket8messagesNtB2_13TunnelMessage11from_binary
FNDA:0,_RNvMNtNtCsdAv6ioJvHeS_13tunnel_client9websocket8messagesNtB2_13TunnelMessage12auth_success
FNDA:0,_RNvMNtNtCsdAv6ioJvHeS_13tunnel_client9websocket8messagesNtB2_13TunnelMessage13http_response
FNDA:0,_RNvMNtNtCsdAv6ioJvHeS_13tunnel_client9websocket8messagesNtB2_13TunnelMessage20http_request_with_id
FNDA:0,_RNvMNtNtCsdAv6ioJvHeS_13tunnel_client9websocket8messagesNtB2_13TunnelMessage5error
FNDA:0,_RNvMNtNtCsdAv6ioJvHeS_13tunnel_client9websocket8messagesNtB2_13TunnelMessage5stats
FNDA:0,_RNvMNtNtCsdAv6ioJvHeS_13tunnel_client9websocket8messagesNtB2_13TunnelMessage6status
FNDA:0,_RNvMNtNtCsdAv6ioJvHeS_13tunnel_client9websocket8messagesNtB2_13TunnelMessage9to_binary
FNDA:1,_RNCNvMNtNtCsdAv6ioJvHeS_13tunnel_client9websocket8messagesNtB4_13TunnelMessage9body_size0B8_
FNDA:0,_RNCNvMNtNtCsdAv6ioJvHeS_13tunnel_client9websocket8messagesNtB4_13TunnelMessage9body_sizes_0B8_
FNDA:1,_RNvMNtNtCsdAv6ioJvHeS_13tunnel_client9websocket8messagesNtB2_13TunnelMessage12http_request
FNDA:3,_RNvMNtNtCsdAv6ioJvHeS_13tunnel_client9websocket8messagesNtB2_13TunnelMessage12message_type
FNDA:1,_RNvMNtNtCsdAv6ioJvHeS_13tunnel_client9websocket8messagesNtB2_13TunnelMessage15has_binary_data
FNDA:0,_RNvMNtNtCsdAv6ioJvHeS_13tunnel_client9websocket8messagesNtB2_13TunnelMessage17error_for_request
FNDA:3,_RNvMNtNtCsdAv6ioJvHeS_13tunnel_client9websocket8messagesNtB2_13TunnelMessage18is_control_message
FNDA:1,_RNvMNtNtCsdAv6ioJvHeS_13tunnel_client9websocket8messagesNtB2_13TunnelMessage4auth
FNDA:3,_RNvMNtNtCsdAv6ioJvHeS_13tunnel_client9websocket8messagesNtB2_13TunnelMessage4ping
FNDA:2,_RNvMNtNtCsdAv6ioJvHeS_13tunnel_client9websocket8messagesNtB2_13TunnelMessage4pong
FNDA:1,_RNvMNtNtCsdAv6ioJvHeS_13tunnel_client9websocket8messagesNtB2_13TunnelMessage7to_json
FNDA:1,_RNvMNtNtCsdAv6ioJvHeS_13tunnel_client9websocket8messagesNtB2_13TunnelMessage9body_size
FNDA:1,_RNvMNtNtCsdAv6ioJvHeS_13tunnel_client9websocket8messagesNtB2_13TunnelMessage9from_json
FNF:26
FNH:14
DA:66,1
DA:67,1
DA:68,1
DA:71,0
DA:72,0
DA:73,0
DA:76,0
DA:77,0
DA:78,0
DA:81,1
DA:82,1
DA:83,1
DA:84,1
DA:85,1
DA:86,1
DA:87,1
DA:88,1
DA:89,1
DA:90,1
DA:91,1
DA:92,1
DA:93,1
DA:94,1
DA:97,0
DA:98,0
DA:99,0
DA:100,0
DA:101,0
DA:102,0
DA:103,0
DA:104,0
DA:105,0
DA:106,0
DA:107,0
DA:108,0
DA:109,0
DA:110,0
DA:111,0
DA:114,0
DA:115,0
DA:116,0
DA:117,0
DA:118,0
DA:119,0
DA:120,0
DA:121,0
DA:122,0
DA:123,0
DA:124,0
DA:125,0
DA:126,0
DA:127,0
DA:128,0
DA:131,0
DA:132,0
DA:133,0
DA:134,0
DA:135,0
DA:136,0
DA:137,0
DA:140,0
DA:141,0
DA:142,0
DA:143,0
DA:144,0
DA:145,0
DA:146,0
DA:149,3
DA:150,3
DA:151,3
DA:152,3
DA:153,3
DA:154,3
DA:155,3
DA:156,3
DA:159,2
DA:160,2
DA:161,2
DA:164,0
DA:165,0
DA:166,0
DA:167,0
DA:168,0
DA:169,0
DA:170,0
DA:173,0
DA:174,0
DA:175,0
DA:178,1
DA:179,1
DA:180,1
DA:183,1
DA:184,1
DA:185,1
DA:188,0
DA:189,0
DA:190,0
DA:191,0
DA:192,0
DA:195,0
DA:196,0
DA:197,0
DA:198,0
DA:201,3
DA:202,3
DA:203,0
DA:204,0
DA:205,0
DA:206,1
DA:207,0
DA:208,0
DA:209,1
DA:210,1
DA:211,0
DA:212,0
DA:214,3
DA:217,0
DA:218,0
DA:219,0
DA:220,0
DA:221,0
DA:222,0
DA:224,0
DA:227,1
DA:228,1
DA:229,1
DA:230,0
DA:231,0
DA:233,1
DA:236,1
DA:237,1
DA:238,1
DA:239,0
DA:240,0
DA:242,1
DA:245,3
DA:246,1
DA:247,3
DA:256,3
DA:264,1
DA:265,1
DA:266,1
DA:267,1
DA:268,1
DA:269,1
DA:270,1
DA:271,0
DA:273,1
DA:276,1
DA:277,1
DA:278,1
DA:279,1
DA:280,1
DA:281,1
DA:282,1
DA:283,1
DA:284,1
DA:285,1
DA:286,1
DA:287,1
DA:288,1
DA:289,1
DA:290,1
DA:291,1
DA:294,1
DA:295,1
DA:296,1
DA:297,1
DA:299,1
DA:300,1
DA:301,1
DA:302,1
DA:303,0
DA:304,1
BRF:0
BRH:0
LF:176
LH:86
end_of_record
SF:/home/femar/A03/Proxy/src/websocket/mod.rs
FN:27,_RNCNCNvNtCsdAv6ioJvHeS_13tunnel_client9websocket20run_websocket_client00B7_
FN:35,_RNCNCNvNtCsdAv6ioJvHeS_13tunnel_client9websocket20run_websocket_client0s_0B7_
FN:18,_RNCNvNtCsdAv6ioJvHeS_13tunnel_client9websocket20run_websocket_client0B5_
FN:15,_RNvNtCsdAv6ioJvHeS_13tunnel_client9websocket20run_websocket_client
FNDA:0,_RNCNCNvNtCsdAv6ioJvHeS_13tunnel_client9websocket20run_websocket_client00B7_
FNDA:0,_RNCNCNvNtCsdAv6ioJvHeS_13tunnel_client9websocket20run_websocket_client0s_0B7_
FNDA:0,_RNCNvNtCsdAv6ioJvHeS_13tunnel_client9websocket20run_websocket_client0B5_
FNDA:0,_RNvNtCsdAv6ioJvHeS_13tunnel_client9websocket20run_websocket_client
FNF:4
FNH:0
DA:15,0
DA:16,0
DA:17,0
DA:18,0
DA:19,0
DA:22,0
DA:25,0
DA:26,0
DA:27,0
DA:28,0
DA:29,0
DA:30,0
DA:31,0
DA:32,0
DA:33,0
DA:34,0
DA:35,0
DA:36,0
DA:37,0
DA:38,0
DA:39,0
DA:41,0
DA:42,0
DA:43,0
DA:44,0
DA:45,0
DA:46,0
DA:47,0
DA:48,0
DA:50,0
DA:51,0
DA:52,0
DA:53,0
DA:57,0
DA:58,0
DA:59,0
BRF:0
BRH:0
LF:41
LH:0
end_of_record
SF:/home/femar/A03/Proxy/src/websocket/reconnect.rs
FN:317,_RNvNtNtNtCsdAv6ioJvHeS_13tunnel_client9websocket9reconnect5testss_22test_infinite_attempts
FN:329,_RNvNtNtNtCsdAv6ioJvHeS_13tunnel_client9websocket9reconnect5testss_24test_reset_functionality
FN:344,_RNvNtNtNtCsdAv6ioJvHeS_13tunnel_client9websocket9reconnect5testss_25test_reconnect_strategies
FN:293,_RNvNtNtNtCsdAv6ioJvHeS_13tunnel_client9websocket9reconnect5testss_28test_basic_reconnect_manager
FN:268,_RNCNvMs1_NtNtCsdAv6ioJvHeS_13tunnel_client9websocket9reconnectNtB7_24AdvancedReconnectManager5stats0Bb_
FN:239,_RNvMs1_NtNtCsdAv6ioJvHeS_13tunnel_client9websocket9reconnectNtB5_24AdvancedReconnectManager10next_delay
FN:222,_RNvMs1_NtNtCsdAv6ioJvHeS_13tunnel_client9websocket9reconnectNtB5_24AdvancedReconnectManager16should_reconnect
FN:210,_RNvMs1_NtNtCsdAv6ioJvHeS_13tunnel_client9websocket9reconnectNtB5_24AdvancedReconnectManager17with_max_attempts
FN:216,_RNvMs1_NtNtCsdAv6ioJvHeS_13tunnel_client9websocket9reconnectNtB5_24AdvancedReconnectManager17with_min_interval
FN:199,_RNvMs1_NtNtCsdAv6ioJvHeS_13tunnel_client9websocket9reconnectNtB5_24AdvancedReconnectManager3new
FN:252,_RNvMs1_NtNtCsdAv6ioJvHeS_13tunnel_client9websocket9reconnectNtB5_24AdvancedReconnectManager5reset
FN:264,_RNvMs1_NtNtCsdAv6ioJvHeS_13tunnel_client9websocket9reconnectNtB5_24AdvancedReconnectManager5stats
FN:145,_RNvXs_NtNtCsdAv6ioJvHeS_13tunnel_client9websocket9reconnectNtB4_16ReconnectManagerNtNtCs9sjCchOt1K7_4core7default7Default7default
FN:128,_RNvMNtNtCsdAv6ioJvHeS_13tunnel_client9websocket9reconnectNtB2_16ReconnectManager10add_jitter
FN:68,_RNvMNtNtCsdAv6ioJvHeS_13tunnel_client9websocket9reconnectNtB2_16ReconnectManager10next_delay
FN:53,_RNvMNtNtCsdAv6ioJvHeS_13tunnel_client9websocket9reconnectNtB2_16ReconnectManager11with_jitter
FN:123,_RNvMNtNtCsdAv6ioJvHeS_13tunnel_client9websocket9reconnectNtB2_16ReconnectManager12is_exhausted
FN:118,_RNvMNtNtCsdAv6ioJvHeS_13tunnel_client9websocket9reconnectNtB2_16ReconnectManager12max_attempts
FN:41,_RNvMNtNtCsdAv6ioJvHeS_13tunnel_client9websocket9reconnectNtB2_16ReconnectManager14with_max_delay
FN:113,_RNvMNtNtCsdAv6ioJvHeS_13tunnel_client9websocket9reconnectNtB2_16ReconnectManager15current_attempt
FN:35,_RNvMNtNtCsdAv6ioJvHeS_13tunnel_client9websocket9reconnectNtB2_16ReconnectManager15with_base_delay
FN:59,_RNvMNtNtCsdAv6ioJvHeS_13tunnel_client9websocket9reconnectNtB2_16ReconnectManager16should_reconnect
FN:29,_RNvMNtNtCsdAv6ioJvHeS_13tunnel_client9websocket9reconnectNtB2_16ReconnectManager17with_max_attempts
FN:47,_RNvMNtNtCsdAv6ioJvHeS_13tunnel_client9websocket9reconnectNtB2_16ReconnectManager23with_backoff_multiplier
FN:17,_RNvMNtNtCsdAv6ioJvHeS_13tunnel_client9websocket9reconnectNtB2_16ReconnectManager3new
FN:105,_RNvMNtNtCsdAv6ioJvHeS_13tunnel_client9websocket9reconnectNtB2_16ReconnectManager5reset
FN:169,_RNvMs0_NtNtCsdAv6ioJvHeS_13tunnel_client9websocket9reconnectNtB5_17ReconnectStrategy15calculate_delay
FNDA:1,_RNvNtNtNtCsdAv6ioJvHeS_13tunnel_client9websocket9reconnect5testss_22test_infinite_attempts
FNDA:1,_RNvNtNtNtCsdAv6ioJvHeS_13tunnel_client9websocket9reconnect5testss_24test_reset_functionality
FNDA:1,_RNvNtNtNtCsdAv6ioJvHeS_13tunnel_client9websocket9reconnect5testss_25test_reconnect_strategies
FNDA:1,_RNvNtNtNtCsdAv6ioJvHeS_13tunnel_client9websocket9reconnect5testss_28test_basic_reconnect_manager
FNDA:0,_RNCNvMs1_NtNtCsdAv6ioJvHeS_13tunnel_client9websocket9reconnectNtB7_24AdvancedReconnectManager5stats0Bb_
FNDA:0,_RNvMs1_NtNtCsdAv6ioJvHeS_13tunnel_client9websocket9reconnectNtB5_24AdvancedReconnectManager10next_delay
FNDA:0,_RNvMs1_NtNtCsdAv6ioJvHeS_13tunnel_client9websocket9reconnectNtB5_24AdvancedReconnectManager16should_reconnect
FNDA:0,_RNvMs1_NtNtCsdAv6ioJvHeS_13tunnel_client9websocket9reconnectNtB5_24AdvancedReconnectManager17with_max_attempts
FNDA:0,_RNvMs1_NtNtCsdAv6ioJvHeS_13tunnel_client9websocket9reconnectNtB5_24AdvancedReconnectManager17with_min_interval
FNDA:0,_RNvMs1_NtNtCsdAv6ioJvHeS_13tunnel_client9websocket9reconnectNtB5_24AdvancedReconnectManager3new
FNDA:0,_RNvMs1_NtNtCsdAv6ioJvHeS_13tunnel_client9websocket9reconnectNtB5_24AdvancedReconnectManager5reset
FNDA:0,_RNvMs1_NtNtCsdAv6ioJvHeS_13tunnel_client9websocket9reconnectNtB5_24AdvancedReconnectManager5stats
FNDA:0,_RNvXs_NtNtCsdAv6ioJvHeS_13tunnel_client9websocket9reconnectNtB4_16ReconnectManagerNtNtCs9sjCchOt1K7_4core7default7Default7default
FNDA:102,_RNvMNtNtCsdAv6ioJvHeS_13tunnel_client9websocket9reconnectNtB2_16ReconnectManager10add_jitter
FNDA:105,_RNvMNtNtCsdAv6ioJvHeS_13tunnel_client9websocket9reconnectNtB2_16ReconnectManager10next_delay
FNDA:1,_RNvMNtNtCsdAv6ioJvHeS_13tunnel_client9websocket9reconnectNtB2_16ReconnectManager11with_jitter
FNDA:1,_RNvMNtNtCsdAv6ioJvHeS_13tunnel_client9websocket9reconnectNtB2_16ReconnectManager12is_exhausted
FNDA:2,_RNvMNtNtCsdAv6ioJvHeS_13tunnel_client9websocket9reconnectNtB2_16ReconnectManager12max_attempts
FNDA:2,_RNvMNtNtCsdAv6ioJvHeS_13tunnel_client9websocket9reconnectNtB2_16ReconnectManager14with_max_delay
FNDA:4,_RNvMNtNtCsdAv6ioJvHeS_13tunnel_client9websocket9reconnectNtB2_16ReconnectManager15current_attempt
FNDA:5,_RNvMNtNtCsdAv6ioJvHeS_13tunnel_client9websocket9reconnectNtB2_16ReconnectManager15with_base_delay
FNDA:208,_RNvMNtNtCsdAv6ioJvHeS_13tunnel_client9websocket9reconnectNtB2_16ReconnectManager16should_reconnect
FNDA:5,_RNvMNtNtCsdAv6ioJvHeS_13tunnel_client9websocket9reconnectNtB2_16ReconnectManager17with_max_attempts
FNDA:1,_RNvMNtNtCsdAv6ioJvHeS_13tunnel_client9websocket9reconnectNtB2_16ReconnectManager23with_backoff_multiplier
FNDA:5,_RNvMNtNtCsdAv6ioJvHeS_13tunnel_client9websocket9reconnectNtB2_16ReconnectManager3new
FNDA:1,_RNvMNtNtCsdAv6ioJvHeS_13tunnel_client9websocket9reconnectNtB2_16ReconnectManager5reset
FNDA:9,_RNvMs0_NtNtCsdAv6ioJvHeS_13tunnel_client9websocket9reconnectNtB5_17ReconnectStrategy15calculate_delay
FNF:27
FNH:18
DA:17,5
DA:18,5
DA:19,5
DA:20,5
DA:21,5
DA:22,5
DA:23,5
DA:24,5
DA:25,5
DA:26,5
DA:29,5
DA:30,5
DA:31,5
DA:32,5
DA:35,5
DA:36,5
DA:37,5
DA:38,5
DA:41,2
DA:42,2
DA:43,2
DA:44,2
DA:47,1
DA:48,1
DA:49,1
DA:50,1
DA:53,1
DA:54,1
DA:55,1
DA:56,1
DA:59,208
DA:60,208
DA:61,200
DA:63,8
DA:65,208
DA:68,105
DA:69,105
DA:70,0
DA:71,105
DA:72,105
DA:73,105
DA:74,105
DA:75,105
DA:76,105
DA:77,105
DA:80,105
DA:81,102
DA:83,3
DA:86,105
DA:87,105
DA:88,105
DA:89,105
DA:90,105
DA:91,0
DA:92,0
DA:93,0
DA:94,0
DA:96,0
DA:101,105
DA:102,105
DA:105,1
DA:106,1
DA:107,1
DA:108,1
DA:109,0
DA:110,1
DA:113,4
DA:114,4
DA:115,4
DA:118,2
DA:119,2
DA:120,2
DA:123,1
DA:124,1
DA:125,1
DA:128,102
DA:133,102
DA:134,102
DA:135,102
DA:136,102
DA:137,102
DA:138,102
DA:139,102
DA:140,102
DA:141,102
DA:145,0
DA:146,0
DA:147,0
DA:169,9
DA:170,9
DA:171,2
DA:172,3
DA:174,4
DA:175,4
DA:176,4
DA:177,4
DA:178,4
DA:179,4
DA:180,4
DA:182,0
DA:184,9
DA:199,0
DA:200,0
DA:201,0
DA:202,0
DA:203,0
DA:204,0
DA:205,0
DA:206,0
DA:207,0
DA:210,0
DA:211,0
DA:212,0
DA:213,0
DA:216,0
DA:217,0
DA:218,0
DA:219,0
DA:222,0
DA:223,0
DA:224,0
DA:225,0
DA:228,0
DA:229,0
DA:230,0
DA:231,0
DA:232,0
DA:233,0
DA:235,0
DA:236,0
DA:239,0
DA:240,0
DA:241,0
DA:242,0
DA:243,0
DA:244,0
DA:245,0
DA:246,0
DA:247,0
DA:248,0
DA:249,0
DA:252,0
DA:253,0
DA:254,0
DA:255,0
DA:258,0
DA:259,0
DA:260,0
DA:261,0
DA:264,0
DA:265,0
DA:266,0
DA:267,0
DA:268,0
DA:269,0
DA:270,0
DA:271,0
DA:272,0
DA:273,0
DA:276,0
DA:293,1
DA:294,1
DA:295,1
DA:296,1
DA:297,1
DA:298,1
DA:299,1
DA:300,1
DA:302,1
DA:303,1
DA:305,1
DA:306,1
DA:308,1
DA:309,1
DA:312,1
DA:313,1
DA:314,1
DA:317,1
DA:318,1
DA:319,1
DA:320,1
DA:322,101
DA:323,100
DA:324,100
DA:326,1
DA:329,1
DA:330,1
DA:331,1
DA:332,1
DA:333,1
DA:334,1
DA:335,1
DA:336,1
DA:338,1
DA:339,1
DA:340,1
DA:341,1
DA:344,1
DA:345,1
DA:346,1
DA:347,1
DA:349,1
DA:350,1
DA:351,1
DA:352,1
DA:353,1
DA:354,1
DA:355,1
DA:357,1
DA:358,1
DA:359,1
DA:360,1
DA:361,1
DA:362,1
DA:363,1
DA:364,1
DA:365,1
DA:366,1
BRF:0
BRH:0
LF:219
LH:148
end_of_record
SF:/home/femar/A03/Proxy/src/websocket/tunnel.rs
FN:333,_RNvNtNtNtCsdAv6ioJvHeS_13tunnel_client9websocket6tunnel5tests21create_test_app_state
FN:409,_RNvNtNtNtCsdAv6ioJvHeS_13tunnel_client9websocket6tunnel5testss_21test_header_filtering
FN:378,_RNvNtNtNtCsdAv6ioJvHeS_13tunnel_client9websocket6tunnel5testss_22test_header_validation
FN:356,_RNvNtNtNtCsdAv6ioJvHeS_13tunnel_client9websocket6tunnel5testss_23test_ping_pong_handling
FN:356,_RNCNvNtNtNtCsdAv6ioJvHeS_13tunnel_client9websocket6tunnel5testss_23test_ping_pong_handling0B9_
FN:249,_RNCNCNvMNtNtCsdAv6ioJvHeS_13tunnel_client9websocket6tunnelNtB6_13TunnelHandler18handle_proxy_error00Ba_
FN:215,_RNCNCNvMNtNtCsdAv6ioJvHeS_13tunnel_client9websocket6tunnelNtB6_13TunnelHandler21handle_proxy_response00Ba_
FN:223,_RNCNCNvMNtNtCsdAv6ioJvHeS_13tunnel_client9websocket6tunnelNtB6_13TunnelHandler21handle_proxy_response0s_0Ba_
FN:238,_RNCNvMNtNtCsdAv6ioJvHeS_13tunnel_client9websocket6tunnelNtB4_13TunnelHandler18handle_proxy_error0B8_
FN:194,_RNCNvMNtNtCsdAv6ioJvHeS_13tunnel_client9websocket6tunnelNtB4_13TunnelHandler20create_stats_message0B8_
FN:211,_RNCNvMNtNtCsdAv6ioJvHeS_13tunnel_client9websocket6tunnelNtB4_13TunnelHandler21handle_proxy_response0B8_
FN:233,_RNvMNtNtCsdAv6ioJvHeS_13tunnel_client9websocket6tunnelNtB2_13TunnelHandler18handle_proxy_error
FN:184,_RNvMNtNtCsdAv6ioJvHeS_13tunnel_client9websocket6tunnelNtB2_13TunnelHandler19create_auth_message
FN:189,_RNvMNtNtCsdAv6ioJvHeS_13tunnel_client9websocket6tunnelNtB2_13TunnelHandler19create_ping_message
FN:194,_RNvMNtNtCsdAv6ioJvHeS_13tunnel_client9websocket6tunnelNtB2_13TunnelHandler20create_stats_message
FN:204,_RNvMNtNtCsdAv6ioJvHeS_13tunnel_client9websocket6tunnelNtB2_13TunnelHandler21handle_proxy_response
FN:41,_RNCNCNCNvMNtNtCsdAv6ioJvHeS_13tunnel_client9websocket6tunnelNtB8_13TunnelHandler14handle_message000Bc_
FN:134,_RNCNCNCNvMNtNtCsdAv6ioJvHeS_13tunnel_client9websocket6tunnelNtB8_13TunnelHandler14handle_message00s0_0Bc_
FN:101,_RNCNCNCNvMNtNtCsdAv6ioJvHeS_13tunnel_client9websocket6tunnelNtB8_13TunnelHandler14handle_message00s_0Bc_
FN:307,_RNCNvMNtNtCsdAv6ioJvHeS_13tunnel_client9websocket6tunnelNtB4_13TunnelHandler14filter_headers0B8_
FN:20,_RNCNvMNtNtCsdAv6ioJvHeS_13tunnel_client9websocket6tunnelNtB4_13TunnelHandler14handle_message0B8_
FN:287,_RNCNvMNtNtCsdAv6ioJvHeS_13tunnel_client9websocket6tunnelNtB4_13TunnelHandler21validate_http_request0B8_
FN:294,_RNCNvMNtNtCsdAv6ioJvHeS_13tunnel_client9websocket6tunnelNtB4_13TunnelHandler21validate_http_requests_0B8_
FN:304,_RNvMNtNtCsdAv6ioJvHeS_13tunnel_client9websocket6tunnelNtB2_13TunnelHandler14filter_headers
FN:20,_RNvMNtNtCsdAv6ioJvHeS_13tunnel_client9websocket6tunnelNtB2_13TunnelHandler14handle_message
FN:312,_RNvMNtNtCsdAv6ioJvHeS_13tunnel_client9websocket6tunnelNtB2_13TunnelHandler18should_skip_header
FN:258,_RNvMNtNtCsdAv6ioJvHeS_13tunnel_client9websocket6tunnelNtB2_13TunnelHandler21validate_http_request
FN:14,_RNvMNtNtCsdAv6ioJvHeS_13tunnel_client9websocket6tunnelNtB2_13TunnelHandler3new
FNDA:3,_RNvNtNtNtCsdAv6ioJvHeS_13tunnel_client9websocket6tunnel5tests21create_test_app_state
FNDA:1,_RNvNtNtNtCsdAv6ioJvHeS_13tunnel_client9websocket6tunnel5testss_21test_header_filtering
FNDA:1,_RNvNtNtNtCsdAv6ioJvHeS_13tunnel_client9websocket6tunnel5testss_22test_header_validation
FNDA:1,_RNvNtNtNtCsdAv6ioJvHeS_13tunnel_client9websocket6tunnel5testss_23test_ping_pong_handling
FNDA:1,_RNCNvNtNtNtCsdAv6ioJvHeS_13tunnel_client9websocket6tunnel5testss_23test_ping_pong_handling0B9_
FNDA:0,_RNCNCNvMNtNtCsdAv6ioJvHeS_13tunnel_client9websocket6tunnelNtB6_13TunnelHandler18handle_proxy_error00Ba_
FNDA:0,_RNCNCNvMNtNtCsdAv6ioJvHeS_13tunnel_client9websocket6tunnelNtB6_13TunnelHandler21handle_proxy_response00Ba_
FNDA:0,_RNCNCNvMNtNtCsdAv6ioJvHeS_13tunnel_client9websocket6tunnelNtB6_13TunnelHandler21handle_proxy_response0s_0Ba_
FNDA:0,_RNCNvMNtNtCsdAv6ioJvHeS_13tunnel_client9websocket6tunnelNtB4_13TunnelHandler18handle_proxy_error0B8_
FNDA:0,_RNCNvMNtNtCsdAv6ioJvHeS_13tunnel_client9websocket6tunnelNtB4_13TunnelHandler20create_stats_message0B8_
FNDA:0,_RNCNvMNtNtCsdAv6ioJvHeS_13tunnel_client9websocket6tunnelNtB4_13TunnelHandler21handle_proxy_response0B8_
FNDA:0,_RNvMNtNtCsdAv6ioJvHeS_13tunnel_client9websocket6tunnelNtB2_13TunnelHandler18handle_proxy_error
FNDA:0,_RNvMNtNtCsdAv6ioJvHeS_13tunnel_client9websocket6tunnelNtB2_13TunnelHandler19create_auth_message
FNDA:0,_RNvMNtNtCsdAv6ioJvHeS_13tunnel_client9websocket6tunnelNtB2_13TunnelHandler19create_ping_message
FNDA:0,_RNvMNtNtCsdAv6ioJvHeS_13tunnel_client9websocket6tunnelNtB2_13TunnelHandler20create_stats_message
FNDA:0,_RNvMNtNtCsdAv6ioJvHeS_13tunnel_client9websocket6tunnelNtB2_13TunnelHandler21handle_proxy_response
FNDA:0,_RNCNCNCNvMNtNtCsdAv6ioJvHeS_13tunnel_client9websocket6tunnelNtB8_13TunnelHandler14handle_message000Bc_
FNDA:0,_RNCNCNCNvMNtNtCsdAv6ioJvHeS_13tunnel_client9websocket6tunnelNtB8_13TunnelHandler14handle_message00s0_0Bc_
FNDA:0,_RNCNCNCNvMNtNtCsdAv6ioJvHeS_13tunnel_client9websocket6tunnelNtB8_13TunnelHandler14handle_message00s_0Bc_
FNDA:4,_RNCNvMNtNtCsdAv6ioJvHeS_13tunnel_client9websocket6tunnelNtB4_13TunnelHandler14filter_headers0B8_
FNDA:1,_RNCNvMNtNtCsdAv6ioJvHeS_13tunnel_client9websocket6tunnelNtB4_13TunnelHandler14handle_message0B8_
FNDA:25,_RNCNvMNtNtCsdAv6ioJvHeS_13tunnel_client9websocket6tunnelNtB4_13TunnelHandler21validate_http_request0B8_
FNDA:28,_RNCNvMNtNtCsdAv6ioJvHeS_13tunnel_client9websocket6tunnelNtB4_13TunnelHandler21validate_http_requests_0B8_
FNDA:1,_RNvMNtNtCsdAv6ioJvHeS_13tunnel_client9websocket6tunnelNtB2_13TunnelHandler14filter_headers
FNDA:1,_RNvMNtNtCsdAv6ioJvHeS_13tunnel_client9websocket6tunnelNtB2_13TunnelHandler14handle_message
FNDA:4,_RNvMNtNtCsdAv6ioJvHeS_13tunnel_client9websocket6tunnelNtB2_13TunnelHandler18should_skip_header
FNDA:4,_RNvMNtNtCsdAv6ioJvHeS_13tunnel_client9websocket6tunnelNtB2_13TunnelHandler21validate_http_request
FNDA:5,_RNvMNtNtCsdAv6ioJvHeS_13tunnel_client9websocket6tunnelNtB2_13TunnelHandler3new
FNF:28
FNH:14
DA:14,5
DA:15,5
DA:16,5
DA:20,1
DA:21,1
DA:41,0
DA:42,0
DA:43,0
DA:101,0
DA:102,0
DA:103,0
DA:134,0
DA:135,0
DA:136,0
DA:181,1
DA:184,0
DA:185,0
DA:186,0
DA:189,0
DA:190,0
DA:191,0
DA:194,0
DA:195,0
DA:196,0
DA:197,0
DA:198,0
DA:199,0
DA:200,0
DA:201,0
DA:204,0
DA:205,0
DA:206,0
DA:207,0
DA:208,0
DA:209,0
DA:210,0
DA:211,0
DA:212,0
DA:215,0
DA:216,0
DA:217,0
DA:218,0
DA:219,0
DA:220,0
DA:221,0
DA:222,0
DA:223,0
DA:224,0
DA:225,0
DA:226,0
DA:227,0
DA:229,0
DA:230,0
DA:233,0
DA:234,0
DA:235,0
DA:236,0
DA:237,0
DA:238,0
DA:239,0
DA:242,0
DA:243,0
DA:244,0
DA:245,0
DA:246,0
DA:247,0
DA:248,0
DA:249,0
DA:250,0
DA:251,0
DA:252,0
DA:254,0
DA:255,0
DA:258,4
DA:259,4
DA:260,4
DA:261,4
DA:262,4
DA:263,4
DA:265,3
DA:266,4
DA:267,4
DA:269,1
DA:270,3
DA:271,3
DA:272,3
DA:273,3
DA:274,1
DA:275,2
DA:281,4
DA:282,3
DA:283,1
DA:284,2
DA:285,2
DA:286,2
DA:287,25
DA:288,0
DA:289,2
DA:290,2
DA:291,2
DA:292,2
DA:293,2
DA:294,28
DA:296,0
DA:297,2
DA:300,1
DA:301,4
DA:304,1
DA:305,1
DA:306,1
DA:307,4
DA:308,1
DA:309,1
DA:312,4
DA:313,4
DA:314,2
DA:315,4
DA:316,4
DA:317,3
DA:318,3
DA:319,3
DA:320,3
DA:321,3
DA:322,3
DA:323,3
DA:325,4
DA:333,3
DA:334,3
DA:335,3
DA:336,3
DA:337,3
DA:338,3
DA:339,3
DA:340,3
DA:341,3
DA:342,3
DA:343,3
DA:344,3
DA:345,3
DA:346,3
DA:347,3
DA:348,3
DA:349,3
DA:350,3
DA:351,3
DA:352,3
DA:353,3
DA:356,1
DA:357,1
DA:358,1
DA:359,1
DA:360,1
DA:361,1
DA:362,1
DA:363,1
DA:364,1
DA:365,1
DA:366,1
DA:367,1
DA:368,1
DA:369,1
DA:370,1
DA:371,1
DA:372,1
DA:373,1
DA:374,1
DA:375,1
DA:378,1
DA:379,1
DA:380,1
DA:381,1
DA:382,1
DA:383,1
DA:384,1
DA:385,1
DA:386,1
DA:387,1
DA:388,1
DA:391,1
DA:392,1
DA:393,1
DA:396,1
DA:397,1
DA:398,1
DA:401,1
DA:402,1
DA:403,1
DA:404,1
DA:405,1
DA:406,1
DA:409,1
DA:410,1
DA:411,1
DA:412,1
DA:413,1
DA:414,1
DA:415,1
DA:416,1
DA:417,1
DA:418,1
DA:419,1
DA:420,1
DA:421,1
DA:422,1
DA:423,1
DA:424,1
DA:425,1
BRF:0
BRH:0
LF:236
LH:157
end_of_record